

Microchip Technology PIC18 LITE Macro Assembler V1.45 build -152302408 
                                                                                               Tue May 22 16:31:30 2018

Microchip Technology Omniscient Code Generator v1.45 (Free mode) build 201711160504
     1                           	processor	18F46K22
     2                           	fnconf	rparam,??,?,0
     3                           	opt	pw 120
     4                           	opt	lm
     5                           	psect	idataBANK0,global,class=CODE,delta=1,noexec
     6                           	psect	idataBANK1,global,class=CODE,delta=1,noexec
     7                           	psect	smallconst,global,reloc=2,class=SMALLCONST,delta=1,noexec
     8                           	psect	cinit,global,reloc=2,class=CODE,delta=1
     9                           	psect	bssCOMRAM,global,class=COMRAM,space=1,delta=1,noexec
    10                           	psect	bssBANK0,global,class=BANK0,space=1,delta=1,lowdata,noexec
    11                           	psect	dataBANK0,global,class=BANK0,space=1,delta=1,lowdata,noexec
    12                           	psect	bssBANK1,global,class=BANK1,space=1,delta=1,lowdata,noexec
    13                           	psect	dataBANK1,global,class=BANK1,space=1,delta=1,lowdata,noexec
    14                           	psect	cstackBANK0,global,class=BANK0,space=1,delta=1,noexec
    15                           	psect	cstackCOMRAM,global,class=COMRAM,space=1,delta=1,noexec
    16                           	psect	text0,global,reloc=2,class=CODE,delta=1
    17                           	psect	text1,global,reloc=2,class=CODE,delta=1,group=1
    18                           	psect	text2,global,reloc=2,class=CODE,delta=1,group=1
    19                           	psect	text3,global,reloc=2,class=CODE,delta=1,group=1
    20                           	psect	text4,global,reloc=2,class=CODE,delta=1,group=1
    21                           	psect	text5,global,reloc=2,class=CODE,delta=1
    22                           	psect	text6,global,reloc=2,class=CODE,delta=1
    23                           	psect	text7,global,reloc=2,class=CODE,delta=1
    24                           	psect	text8,global,reloc=2,class=CODE,delta=1
    25                           	psect	text9,global,reloc=2,class=CODE,delta=1,group=1
    26                           	psect	text10,global,reloc=2,class=CODE,delta=1,group=1
    27                           	psect	text11,global,reloc=2,class=CODE,delta=1,group=1
    28                           	psect	text12,global,reloc=2,class=CODE,delta=1,group=1
    29                           	psect	text13,global,reloc=2,class=CODE,delta=1
    30                           	psect	text14,global,reloc=2,class=CODE,delta=1
    31                           	psect	text15,global,reloc=2,class=CODE,delta=1
    32                           	psect	text16,global,reloc=2,class=CODE,delta=1
    33                           	psect	text17,global,reloc=2,class=CODE,delta=1
    34                           	psect	text18,global,reloc=2,class=CODE,delta=1
    35                           	psect	intcode,global,reloc=2,class=CODE,delta=1
    36                           	psect	text20,global,reloc=2,class=CODE,delta=1
    37                           	psect	text21,global,reloc=2,class=CODE,delta=1
    38                           	psect	text22,global,reloc=2,class=CODE,delta=1
    39                           	psect	text23,global,reloc=2,class=CODE,delta=1
    40                           	psect	intsave_regs,global,class=BIGRAM,space=1,delta=1,noexec
    41                           	psect	rparam,global,class=COMRAM,space=1,delta=1,noexec
    42                           	psect	temp,global,ovrld,common,class=COMRAM,space=1,delta=1
    43  0000                     
    44                           ; Version 1.45
    45                           ; Generated 16/11/2017 GMT
    46                           ; 
    47                           ; Copyright © 2017, Microchip Technology Inc. and its subsidiaries ("Microchip")
    48                           ; All rights reserved.
    49                           ; 
    50                           ; This software is developed by Microchip Technology Inc. and its subsidiaries ("Microch
      +                          ip").
    51                           ; 
    52                           ; Redistribution and use in source and binary forms, with or without modification, are
    53                           ; permitted provided that the following conditions are met:
    54                           ; 
    55                           ;     1. Redistributions of source code must retain the above copyright notice, this lis
      +                          t of
    56                           ;        conditions and the following disclaimer.
    57                           ; 
    58                           ;     2. Redistributions in binary form must reproduce the above copyright notice, this 
      +                          list
    59                           ;        of conditions and the following disclaimer in the documentation and/or other
    60                           ;        materials provided with the distribution.
    61                           ; 
    62                           ;     3. Microchip's name may not be used to endorse or promote products derived from th
      +                          is
    63                           ;        software without specific prior written permission.
    64                           ; 
    65                           ; THIS SOFTWARE IS PROVIDED BY MICROCHIP "AS IS" AND ANY EXPRESS OR IMPLIED WARRANTIES,
    66                           ; INCLUDING, BUT NOT LIMITED TO, THE IMPLIED WARRANTIES OF MERCHANTABILITY AND FITNESS F
      +                          OR
    67                           ; PURPOSE ARE DISCLAIMED.  IN NO EVENT SHALL MICROCHIP BE LIABLE FOR ANY DIRECT, INDIREC
      +                          T,
    68                           ; INCIDENTAL, SPECIAL, EXEMPLARY, OR CONSEQUENTIAL DAMAGES (INCLUDING BUT NOT LIMITED TO
    69                           ; PROCUREMENT OF SUBSTITUTE GOODS OR SERVICES; LOSS OF USE, DATA OR PROFITS; OR BUSINESS
    70                           ; INTERRUPTION) HOWSOEVER CAUSED AND ON ANY THEORY OF LIABILITY, WHETHER IN CONTRACT, ST
      +                          RICT
    71                           ; LIABILITY, OR TORT (INCLUDING NEGLIGENCE OR OTHERWISE) ARISING IN ANY WAY OUT OF THE U
      +                          SE OF
    72                           ; THIS SOFTWARE, EVEN IF ADVISED OF THE POSSIBILITY OF SUCH DAMAGE.
    73                           ; 
    74                           ; 
    75                           ; Code-generator required, PIC18F46K22 Definitions
    76                           ; 
    77                           ; SFR Addresses
    78  0000                     
    79                           	psect	idataBANK0
    80  002E0C                     __pidataBANK0:
    81                           	opt stack 0
    82                           
    83                           ;initializer for _Angle
    84  002E0C  0000               	dw	0
    85  002E0E  40C0               	dw	16576
    86                           
    87                           ;initializer for _SetPoint
    88  002E10  0000               	dw	0
    89  002E12  40C0               	dw	16576
    90                           
    91                           ;initializer for _Kp
    92  002E14  E148               	dw	57672
    93  002E16  3F1A               	dw	16154
    94                           
    95                           ;initializer for _Kp2
    96  002E18  0000               	dw	0
    97  002E1A  4060               	dw	16480
    98                           
    99                           ;initializer for _flag_vb
   100  002E1C  0001               	dw	1
   101                           
   102                           	psect	idataBANK1
   103  002E5C                     __pidataBANK1:
   104                           	opt stack 0
   105                           
   106                           ;initializer for _constante_integrador2
   107  002E5C  51EC               	dw	20972
   108  002E5E  3E38               	dw	15928
   109                           
   110                           ;initializer for _constante_integrador
   111  002E60  0789               	dw	1929
   112  002E62  3C94               	dw	15508
   113                           
   114                           	psect	smallconst
   115  001000                     __psmallconst:
   116                           	opt stack 0
   117  001000  00                 	db	0
   118  001001                     _Ki_vb:
   119                           	opt stack 0
   120  001001  D70A               	dw	55050
   121  001003  3CA3               	dw	15523
   122  001005                     __end_of_Ki_vb:
   123                           	opt stack 0
   124  001005                     _Kp_vb:
   125                           	opt stack 0
   126  001005  0000               	dw	0
   127  001007  4100               	dw	16640
   128  001009                     __end_of_Kp_vb:
   129                           	opt stack 0
   130  0000                     _TMR6	set	3916
   131  0000                     _T6CONbits	set	3914
   132  0000                     _TMR4	set	3923
   133  0000                     _T4CONbits	set	3921
   134  0000                     _TMR5H	set	3920
   135  0000                     _TMR5L	set	3919
   136  0000                     _T5CONbits	set	3918
   137  0000                     _CCP4CON	set	3927
   138  0000                     _CCPR4L	set	3928
   139  0000                     _CCPR5H	set	3926
   140  0000                     _CCPR5L	set	3925
   141  0000                     _CCP5CON	set	3924
   142  0000                     _CCPTMRS1bits	set	3912
   143  0000                     _ECCP3ASbits	set	3931
   144  0000                     _CCPR3H	set	3935
   145  0000                     _CCPR3L	set	3934
   146  0000                     _CCP3CON	set	3933
   147  0000                     _CCPTMRS0bits	set	3913
   148  0000                     _ANSELE	set	3900
   149  0000                     _ANSELD	set	3899
   150  0000                     _ANSELC	set	3898
   151  0000                     _ANSELB	set	3897
   152  0000                     _ANSELA	set	3896
   153  0000                     _TMR0L	set	4054
   154  0000                     _TMR0H	set	4055
   155  0000                     _T0CONbits	set	4053
   156  0000                     _TMR2	set	4028
   157  0000                     _T2CONbits	set	4026
   158  0000                     _TMR3H	set	4019
   159  0000                     _TMR3L	set	4018
   160  0000                     _T3CONbits	set	4017
   161  0000                     _TMR1L	set	4046
   162  0000                     _TMR1H	set	4047
   163  0000                     _T1CONbits	set	4045
   164  0000                     _SSP2STATbits	set	3949
   165  0000                     _SSP2STAT	set	3949
   166  0000                     _SSP2CON1	set	3948
   167  0000                     _SSP2BUF	set	3951
   168  0000                     _SSP1STATbits	set	4039
   169  0000                     _SSP1STAT	set	4039
   170  0000                     _SSP1CON1	set	4038
   171  0000                     _INTCON2bits	set	4081
   172  0000                     _ADCON1bits	set	4033
   173  0000                     _ADCON2bits	set	4032
   174  0000                     _ECCP2ASbits	set	3940
   175  0000                     _CCPR2H	set	3944
   176  0000                     _CCPR2L	set	3943
   177  0000                     _CCP2CON	set	3942
   178  0000                     _ECCP1ASbits	set	4022
   179  0000                     _PR2	set	4027
   180  0000                     _CCPR1H	set	4031
   181  0000                     _CCPR1L	set	4030
   182  0000                     _CCP1CON	set	4029
   183  0000                     _ADRESL	set	4035
   184  0000                     _ADRESH	set	4036
   185  0000                     _ADCON0bits	set	4034
   186  0000                     _ADCON2	set	4032
   187  0000                     _ADCON1	set	4033
   188  0000                     _ADCON0	set	4034
   189  0000                     _TRISE	set	3990
   190  0000                     _TRISD	set	3989
   191  0000                     _TRISC	set	3988
   192  0000                     _TRISB	set	3987
   193  0000                     _TRISA	set	3986
   194  0000                     _LATAbits	set	3977
   195  0000                     _LATBbits	set	3978
   196  0000                     _PORTBbits	set	3969
   197  0000                     _LATCbits	set	3979
   198  0000                     _SSP1BUF	set	4041
   199  0000                     _PIE1bits	set	3997
   200  0000                     _PIR1bits	set	3998
   201  0000                     _LATDbits	set	3980
   202  0000                     _INTCONbits	set	4082
   203  0000                     _TMR5IE	set	31721
   204  0000                     _TMR3IE	set	32001
   205  0000                     _TMR1IE	set	31976
   206  0000                     _TRISD4	set	31916
   207  0000                     _TRISD3	set	31915
   208  0000                     _TRISD1	set	31913
   209  0000                     _TRISD0	set	31912
   210  0000                     _SSP2IP	set	32047
   211  0000                     _TRISC5	set	31909
   212  0000                     _TRISC4	set	31908
   213  0000                     _TRISC3	set	31907
   214  0000                     _TRISA5	set	31893
   215  0000                     _SSP1IP	set	31995
   216  0000                     _TRISB2	set	31898
   217  0000                     _TRISB1	set	31897
   218  0000                     _TRISB0	set	31896
   219  0000                     _AN1	set	31745
   220                           
   221                           ; #config settings
   222  001009  00                 	db	0	; dummy byte at the end
   223  0000                     
   224                           	psect	cinit
   225  002C06                     __pcinit:
   226                           	opt stack 0
   227  002C06                     start_initialization:
   228                           	opt stack 0
   229  002C06                     __initialization:
   230                           	opt stack 0
   231                           
   232                           ; Initialize objects allocated to BANK1 (8 bytes)
   233                           ; load TBLPTR registers with __pidataBANK1
   234  002C06  0E5C               	movlw	low __pidataBANK1
   235  002C08  6EF6               	movwf	tblptrl,c
   236  002C0A  0E2E               	movlw	high __pidataBANK1
   237  002C0C  6EF7               	movwf	tblptrh,c
   238  002C0E  0E00               	movlw	low (__pidataBANK1 shr (0+16))
   239  002C10  6EF8               	movwf	tblptru,c
   240  002C12  EE01  F02C         	lfsr	0,__pdataBANK1
   241  002C16  EE10 F008          	lfsr	1,8
   242  002C1A                     copy_data0:
   243  002C1A  0009               	tblrd		*+
   244  002C1C  CFF5 FFEE          	movff	tablat,postinc0
   245  002C20  50E5               	movf	postdec1,w,c
   246  002C22  50E1               	movf	fsr1l,w,c
   247  002C24  E1FA               	bnz	copy_data0
   248                           
   249                           ; Initialize objects allocated to BANK0 (18 bytes)
   250                           ; load TBLPTR registers with __pidataBANK0
   251  002C26  0E0C               	movlw	low __pidataBANK0
   252  002C28  6EF6               	movwf	tblptrl,c
   253  002C2A  0E2E               	movlw	high __pidataBANK0
   254  002C2C  6EF7               	movwf	tblptrh,c
   255  002C2E  0E00               	movlw	low (__pidataBANK0 shr (0+16))
   256  002C30  6EF8               	movwf	tblptru,c
   257  002C32  EE00  F0EC         	lfsr	0,__pdataBANK0
   258  002C36  EE10 F012          	lfsr	1,18
   259  002C3A                     copy_data1:
   260  002C3A  0009               	tblrd		*+
   261  002C3C  CFF5 FFEE          	movff	tablat,postinc0
   262  002C40  50E5               	movf	postdec1,w,c
   263  002C42  50E1               	movf	fsr1l,w,c
   264  002C44  E1FA               	bnz	copy_data1
   265                           
   266                           ; Clear objects allocated to BANK1 (44 bytes)
   267  002C46  EE01  F000         	lfsr	0,__pbssBANK1
   268  002C4A  0E2C               	movlw	44
   269  002C4C                     clear_0:
   270  002C4C  6AEE               	clrf	postinc0,c
   271  002C4E  06E8               	decf	wreg,f,c
   272  002C50  E1FD               	bnz	clear_0
   273                           
   274                           ; Clear objects allocated to BANK0 (68 bytes)
   275  002C52  EE00  F0A8         	lfsr	0,__pbssBANK0
   276  002C56  0E44               	movlw	68
   277  002C58                     clear_1:
   278  002C58  6AEE               	clrf	postinc0,c
   279  002C5A  06E8               	decf	wreg,f,c
   280  002C5C  E1FD               	bnz	clear_1
   281                           
   282                           ; Clear objects allocated to COMRAM (7 bytes)
   283  002C5E  EE00  F057         	lfsr	0,__pbssCOMRAM
   284  002C62  0E07               	movlw	7
   285  002C64                     clear_2:
   286  002C64  6AEE               	clrf	postinc0,c
   287  002C66  06E8               	decf	wreg,f,c
   288  002C68  E1FD               	bnz	clear_2
   289  002C6A                     end_of_initialization:
   290                           	opt stack 0
   291  002C6A                     __end_of__initialization:
   292                           	opt stack 0
   293  002C6A  905E               	bcf	int$flags,0,c	;clear compiler interrupt flag (level 1)
   294  002C6C  925E               	bcf	int$flags,1,c	;clear compiler interrupt flag (level 2)
   295  002C6E  0E00               	movlw	low (__Lsmallconst shr (0+16))
   296  002C70  6EF8               	movwf	tblptru,c
   297  002C72  0E10               	movlw	high __Lsmallconst
   298  002C74  6EF7               	movwf	tblptrh,c
   299  002C76  0100               	movlb	0
   300  002C78  EF05  F008         	goto	_main	;jump to C main() function
   301                           tblptru	equ	0xFF8
   302                           tblptrh	equ	0xFF7
   303                           tblptrl	equ	0xFF6
   304                           tablat	equ	0xFF5
   305                           postinc0	equ	0xFEE
   306                           wreg	equ	0xFE8
   307                           postdec1	equ	0xFE5
   308                           fsr1l	equ	0xFE1
   309                           
   310                           	psect	bssCOMRAM
   311  000057                     __pbssCOMRAM:
   312                           	opt stack 0
   313  000057                     _spi_ctr:
   314                           	opt stack 0
   315  000057                     	ds	2
   316  000059                     _counter:
   317                           	opt stack 0
   318  000059                     	ds	1
   319  00005A                     _ref_vbReq:
   320                           	opt stack 0
   321  00005A                     	ds	1
   322  00005B                     _inv:
   323                           	opt stack 0
   324  00005B                     	ds	1
   325  00005C                     _ValorTotal:
   326                           	opt stack 0
   327  00005C                     	ds	2
   328                           tblptru	equ	0xFF8
   329                           tblptrh	equ	0xFF7
   330                           tblptrl	equ	0xFF6
   331                           tablat	equ	0xFF5
   332                           postinc0	equ	0xFEE
   333                           wreg	equ	0xFE8
   334                           postdec1	equ	0xFE5
   335                           fsr1l	equ	0xFE1
   336                           
   337                           	psect	bssBANK0
   338  0000A8                     __pbssBANK0:
   339                           	opt stack 0
   340  0000A8                     _Out2:
   341                           	opt stack 0
   342  0000A8                     	ds	4
   343  0000AC                     _Out1:
   344                           	opt stack 0
   345  0000AC                     	ds	4
   346  0000B0                     _Erro1:
   347                           	opt stack 0
   348  0000B0                     	ds	4
   349  0000B4                     _u_i2:
   350                           	opt stack 0
   351  0000B4                     	ds	4
   352  0000B8                     _ui_ant:
   353                           	opt stack 0
   354  0000B8                     	ds	4
   355  0000BC                     _u_i:
   356                           	opt stack 0
   357  0000BC                     	ds	4
   358  0000C0                     _e2_ant:
   359                           	opt stack 0
   360  0000C0                     	ds	4
   361  0000C4                     _e1_ant:
   362                           	opt stack 0
   363  0000C4                     	ds	4
   364  0000C8                     _erro_vb:
   365                           	opt stack 0
   366  0000C8                     	ds	4
   367  0000CC                     _soma_erro_vb:
   368                           	opt stack 0
   369  0000CC                     	ds	4
   370  0000D0                     _valor:
   371                           	opt stack 0
   372  0000D0                     	ds	2
   373  0000D2                     _Dif_vb:
   374                           	opt stack 0
   375  0000D2                     	ds	2
   376  0000D4                     _pwm:
   377                           	opt stack 0
   378  0000D4                     	ds	2
   379  0000D6                     _counter2:
   380                           	opt stack 0
   381  0000D6                     	ds	2
   382  0000D8                     _tps_ad2:
   383                           	opt stack 0
   384  0000D8                     	ds	2
   385  0000DA                     _tps_ad:
   386                           	opt stack 0
   387  0000DA                     	ds	2
   388  0000DC                     _pwm_10bits:
   389                           	opt stack 0
   390  0000DC                     	ds	2
   391  0000DE                     _pedal_ad:
   392                           	opt stack 0
   393  0000DE                     	ds	2
   394  0000E0                     _media:
   395                           	opt stack 0
   396  0000E0                     	ds	2
   397  0000E2                     _ref_vb:
   398                           	opt stack 0
   399  0000E2                     	ds	2
   400  0000E4                     _i:
   401                           	opt stack 0
   402  0000E4                     	ds	1
   403  0000E5                     _EnableControl:
   404                           	opt stack 0
   405  0000E5                     	ds	1
   406  0000E6                     _Erro2:
   407                           	opt stack 0
   408  0000E6                     	ds	4
   409  0000EA                     _value:
   410                           	opt stack 0
   411  0000EA                     	ds	2
   412                           tblptru	equ	0xFF8
   413                           tblptrh	equ	0xFF7
   414                           tblptrl	equ	0xFF6
   415                           tablat	equ	0xFF5
   416                           postinc0	equ	0xFEE
   417                           wreg	equ	0xFE8
   418                           postdec1	equ	0xFE5
   419                           fsr1l	equ	0xFE1
   420                           
   421                           	psect	dataBANK0
   422  0000EC                     __pdataBANK0:
   423                           	opt stack 0
   424  0000EC                     _Angle:
   425                           	opt stack 0
   426  0000EC                     	ds	4
   427  0000F0                     _SetPoint:
   428                           	opt stack 0
   429  0000F0                     	ds	4
   430  0000F4                     _Kp:
   431                           	opt stack 0
   432  0000F4                     	ds	4
   433  0000F8                     _Kp2:
   434                           	opt stack 0
   435  0000F8                     	ds	4
   436  0000FC                     _flag_vb:
   437                           	opt stack 0
   438  0000FC                     	ds	2
   439                           tblptru	equ	0xFF8
   440                           tblptrh	equ	0xFF7
   441                           tblptrl	equ	0xFF6
   442                           tablat	equ	0xFF5
   443                           postinc0	equ	0xFEE
   444                           wreg	equ	0xFE8
   445                           postdec1	equ	0xFE5
   446                           fsr1l	equ	0xFE1
   447                           
   448                           	psect	bssBANK1
   449  000100                     __pbssBANK1:
   450                           	opt stack 0
   451  000100                     _vetor_leitura:
   452                           	opt stack 0
   453  000100                     	ds	20
   454  000114                     _u_p2:
   455                           	opt stack 0
   456  000114                     	ds	4
   457  000118                     _ui_ant2:
   458                           	opt stack 0
   459  000118                     	ds	4
   460  00011C                     _u_p:
   461                           	opt stack 0
   462  00011C                     	ds	4
   463  000120                     _up_ant:
   464                           	opt stack 0
   465  000120                     	ds	4
   466  000124                     _u2_ant:
   467                           	opt stack 0
   468  000124                     	ds	4
   469  000128                     _u1_ant:
   470                           	opt stack 0
   471  000128                     	ds	4
   472                           tblptru	equ	0xFF8
   473                           tblptrh	equ	0xFF7
   474                           tblptrl	equ	0xFF6
   475                           tablat	equ	0xFF5
   476                           postinc0	equ	0xFEE
   477                           wreg	equ	0xFE8
   478                           postdec1	equ	0xFE5
   479                           fsr1l	equ	0xFE1
   480                           
   481                           	psect	dataBANK1
   482  00012C                     __pdataBANK1:
   483                           	opt stack 0
   484  00012C                     _constante_integrador2:
   485                           	opt stack 0
   486  00012C                     	ds	4
   487  000130                     _constante_integrador:
   488                           	opt stack 0
   489  000130                     	ds	4
   490                           tblptru	equ	0xFF8
   491                           tblptrh	equ	0xFF7
   492                           tblptrl	equ	0xFF6
   493                           tablat	equ	0xFF5
   494                           postinc0	equ	0xFEE
   495                           wreg	equ	0xFE8
   496                           postdec1	equ	0xFE5
   497                           fsr1l	equ	0xFE1
   498                           
   499                           	psect	cstackBANK0
   500  000060                     __pcstackBANK0:
   501                           	opt stack 0
   502  000060                     ??_Configure_HW:
   503  000060                     ?___lwdiv:
   504                           	opt stack 0
   505  000060                     ?___xxtofl:
   506                           	opt stack 0
   507  000060                     Set_PWM2_Duty@dutyValue:
   508                           	opt stack 0
   509  000060                     Set_PWM3_Duty@dutyValue:
   510                           	opt stack 0
   511  000060                     ___lwdiv@dividend:
   512                           	opt stack 0
   513  000060                     ___flge@ff1:
   514                           	opt stack 0
   515  000060                     ___xxtofl@val:
   516                           	opt stack 0
   517                           
   518                           ; 4 bytes @ 0x0
   519  000060                     	ds	2
   520  000062                     ??_Set_PWM2_Duty:
   521  000062                     ??_Set_PWM3_Duty:
   522  000062                     ___lwdiv@divisor:
   523                           	opt stack 0
   524                           
   525                           ; 2 bytes @ 0x2
   526  000062                     	ds	2
   527  000064                     ??___xxtofl:
   528  000064                     ___lwdiv@quotient:
   529                           	opt stack 0
   530  000064                     ___flge@ff2:
   531                           	opt stack 0
   532                           
   533                           ; 4 bytes @ 0x4
   534  000064                     	ds	2
   535  000066                     ___lwdiv@counter:
   536                           	opt stack 0
   537                           
   538                           ; 1 bytes @ 0x6
   539  000066                     	ds	2
   540  000068                     ??___flge:
   541  000068                     ___xxtofl@sign:
   542                           	opt stack 0
   543                           
   544                           ; 1 bytes @ 0x8
   545  000068                     	ds	1
   546  000069                     ___xxtofl@exp:
   547                           	opt stack 0
   548                           
   549                           ; 1 bytes @ 0x9
   550  000069                     	ds	1
   551  00006A                     ___xxtofl@arg:
   552                           	opt stack 0
   553                           
   554                           ; 4 bytes @ 0xA
   555  00006A                     	ds	4
   556  00006E                     ?___flmul:
   557                           	opt stack 0
   558  00006E                     ___flmul@b:
   559                           	opt stack 0
   560                           
   561                           ; 4 bytes @ 0xE
   562  00006E                     	ds	4
   563  000072                     ___flmul@a:
   564                           	opt stack 0
   565                           
   566                           ; 4 bytes @ 0x12
   567  000072                     	ds	4
   568  000076                     ??___flmul:
   569                           
   570                           ; 1 bytes @ 0x16
   571  000076                     	ds	4
   572  00007A                     ___flmul@sign:
   573                           	opt stack 0
   574                           
   575                           ; 1 bytes @ 0x1A
   576  00007A                     	ds	1
   577  00007B                     ___flmul@grs:
   578                           	opt stack 0
   579                           
   580                           ; 4 bytes @ 0x1B
   581  00007B                     	ds	4
   582  00007F                     ___flmul@aexp:
   583                           	opt stack 0
   584                           
   585                           ; 1 bytes @ 0x1F
   586  00007F                     	ds	1
   587  000080                     ___flmul@bexp:
   588                           	opt stack 0
   589                           
   590                           ; 1 bytes @ 0x20
   591  000080                     	ds	1
   592  000081                     ___flmul@prod:
   593                           	opt stack 0
   594                           
   595                           ; 4 bytes @ 0x21
   596  000081                     	ds	4
   597  000085                     ___flmul@temp:
   598                           	opt stack 0
   599                           
   600                           ; 2 bytes @ 0x25
   601  000085                     	ds	2
   602  000087                     ?___fldiv:
   603                           	opt stack 0
   604  000087                     ?___flneg:
   605                           	opt stack 0
   606  000087                     ?___fltol:
   607                           	opt stack 0
   608  000087                     ___flneg@f1:
   609                           	opt stack 0
   610  000087                     ___fltol@f1:
   611                           	opt stack 0
   612  000087                     ___fldiv@b:
   613                           	opt stack 0
   614                           
   615                           ; 4 bytes @ 0x27
   616  000087                     	ds	4
   617  00008B                     ??___fltol:
   618  00008B                     ?___fladd:
   619                           	opt stack 0
   620  00008B                     ___fladd@b:
   621                           	opt stack 0
   622  00008B                     ___fldiv@a:
   623                           	opt stack 0
   624                           
   625                           ; 4 bytes @ 0x2B
   626  00008B                     	ds	4
   627  00008F                     ??___fldiv:
   628  00008F                     ___fltol@sign1:
   629                           	opt stack 0
   630  00008F                     ___fladd@a:
   631                           	opt stack 0
   632                           
   633                           ; 4 bytes @ 0x2F
   634  00008F                     	ds	1
   635  000090                     ___fltol@exp1:
   636                           	opt stack 0
   637                           
   638                           ; 1 bytes @ 0x30
   639  000090                     	ds	3
   640  000093                     ??___fladd:
   641  000093                     ___fldiv@sign:
   642                           	opt stack 0
   643                           
   644                           ; 1 bytes @ 0x33
   645  000093                     	ds	1
   646  000094                     ___fldiv@rem:
   647                           	opt stack 0
   648                           
   649                           ; 4 bytes @ 0x34
   650  000094                     	ds	4
   651  000098                     ___fldiv@new_exp:
   652                           	opt stack 0
   653                           
   654                           ; 2 bytes @ 0x38
   655  000098                     	ds	2
   656  00009A                     ___fldiv@grs:
   657                           	opt stack 0
   658                           
   659                           ; 4 bytes @ 0x3A
   660  00009A                     	ds	1
   661  00009B                     ___fladd@signs:
   662                           	opt stack 0
   663                           
   664                           ; 1 bytes @ 0x3B
   665  00009B                     	ds	1
   666  00009C                     ___fladd@aexp:
   667                           	opt stack 0
   668                           
   669                           ; 1 bytes @ 0x3C
   670  00009C                     	ds	1
   671  00009D                     ___fladd@bexp:
   672                           	opt stack 0
   673                           
   674                           ; 1 bytes @ 0x3D
   675  00009D                     	ds	1
   676  00009E                     ___fladd@grs:
   677                           	opt stack 0
   678  00009E                     ___fldiv@bexp:
   679                           	opt stack 0
   680                           
   681                           ; 1 bytes @ 0x3E
   682  00009E                     	ds	1
   683  00009F                     ??_Control_up:
   684  00009F                     ___fldiv@aexp:
   685                           	opt stack 0
   686  00009F                     _Control_down$2670:
   687                           	opt stack 0
   688                           
   689                           ; 4 bytes @ 0x3F
   690  00009F                     	ds	1
   691  0000A0                     _Control_up$2669:
   692                           	opt stack 0
   693                           
   694                           ; 4 bytes @ 0x40
   695  0000A0                     	ds	4
   696  0000A4                     ??_main:
   697                           
   698                           ; 1 bytes @ 0x44
   699  0000A4                     	ds	4
   700                           tblptru	equ	0xFF8
   701                           tblptrh	equ	0xFF7
   702                           tblptrl	equ	0xFF6
   703                           tablat	equ	0xFF5
   704                           postinc0	equ	0xFEE
   705                           wreg	equ	0xFE8
   706                           postdec1	equ	0xFE5
   707                           fsr1l	equ	0xFE1
   708                           
   709                           	psect	cstackCOMRAM
   710  000001                     __pcstackCOMRAM:
   711                           	opt stack 0
   712  000001                     ?i2___xxtofl:
   713                           	opt stack 0
   714  000001                     Set_Timer0@data_timer:
   715                           	opt stack 0
   716  000001                     i2___xxtofl@val:
   717                           	opt stack 0
   718                           
   719                           ; 4 bytes @ 0x0
   720  000001                     	ds	2
   721  000003                     
   722                           ; 1 bytes @ 0x2
   723  000003                     	ds	2
   724  000005                     ??i2___xxtofl:
   725                           
   726                           ; 1 bytes @ 0x4
   727  000005                     	ds	4
   728  000009                     i2___xxtofl@sign:
   729                           	opt stack 0
   730                           
   731                           ; 1 bytes @ 0x8
   732  000009                     	ds	1
   733  00000A                     i2___xxtofl@exp:
   734                           	opt stack 0
   735                           
   736                           ; 1 bytes @ 0x9
   737  00000A                     	ds	1
   738  00000B                     i2___xxtofl@arg:
   739                           	opt stack 0
   740                           
   741                           ; 4 bytes @ 0xA
   742  00000B                     	ds	4
   743  00000F                     ?i2___flmul:
   744                           	opt stack 0
   745  00000F                     i2___flmul@b:
   746                           	opt stack 0
   747                           
   748                           ; 4 bytes @ 0xE
   749  00000F                     	ds	4
   750  000013                     i2___flmul@a:
   751                           	opt stack 0
   752                           
   753                           ; 4 bytes @ 0x12
   754  000013                     	ds	4
   755  000017                     ??i2___flmul:
   756                           
   757                           ; 1 bytes @ 0x16
   758  000017                     	ds	4
   759  00001B                     i2___flmul@sign:
   760                           	opt stack 0
   761                           
   762                           ; 1 bytes @ 0x1A
   763  00001B                     	ds	1
   764  00001C                     i2___flmul@grs:
   765                           	opt stack 0
   766                           
   767                           ; 4 bytes @ 0x1B
   768  00001C                     	ds	4
   769  000020                     i2___flmul@aexp:
   770                           	opt stack 0
   771                           
   772                           ; 1 bytes @ 0x1F
   773  000020                     	ds	1
   774  000021                     i2___flmul@bexp:
   775                           	opt stack 0
   776                           
   777                           ; 1 bytes @ 0x20
   778  000021                     	ds	1
   779  000022                     i2___flmul@prod:
   780                           	opt stack 0
   781                           
   782                           ; 4 bytes @ 0x21
   783  000022                     	ds	4
   784  000026                     i2___flmul@temp:
   785                           	opt stack 0
   786                           
   787                           ; 2 bytes @ 0x25
   788  000026                     	ds	2
   789  000028                     ?i2___fldiv:
   790                           	opt stack 0
   791  000028                     i2___fldiv@b:
   792                           	opt stack 0
   793                           
   794                           ; 4 bytes @ 0x27
   795  000028                     	ds	4
   796  00002C                     i2___fldiv@a:
   797                           	opt stack 0
   798                           
   799                           ; 4 bytes @ 0x2B
   800  00002C                     	ds	4
   801  000030                     ??i2___fldiv:
   802                           
   803                           ; 1 bytes @ 0x2F
   804  000030                     	ds	4
   805  000034                     i2___fldiv@sign:
   806                           	opt stack 0
   807                           
   808                           ; 1 bytes @ 0x33
   809  000034                     	ds	1
   810  000035                     i2___fldiv@rem:
   811                           	opt stack 0
   812                           
   813                           ; 4 bytes @ 0x34
   814  000035                     	ds	4
   815  000039                     i2___fldiv@new_exp:
   816                           	opt stack 0
   817                           
   818                           ; 2 bytes @ 0x38
   819  000039                     	ds	2
   820  00003B                     i2___fldiv@grs:
   821                           	opt stack 0
   822                           
   823                           ; 4 bytes @ 0x3A
   824  00003B                     	ds	4
   825  00003F                     i2___fldiv@bexp:
   826                           	opt stack 0
   827                           
   828                           ; 1 bytes @ 0x3E
   829  00003F                     	ds	1
   830  000040                     i2___fldiv@aexp:
   831                           	opt stack 0
   832                           
   833                           ; 1 bytes @ 0x3F
   834  000040                     	ds	1
   835  000041                     ??_isr:
   836                           
   837                           ; 1 bytes @ 0x40
   838  000041                     	ds	22
   839                           tblptru	equ	0xFF8
   840                           tblptrh	equ	0xFF7
   841                           tblptrl	equ	0xFF6
   842                           tablat	equ	0xFF5
   843                           postinc0	equ	0xFEE
   844                           wreg	equ	0xFE8
   845                           postdec1	equ	0xFE5
   846                           fsr1l	equ	0xFE1
   847                           
   848 ;;
   849 ;;Main: autosize = 0, tempsize = 4, incstack = 0, save=0
   850 ;;
   851 ;; *************** function _main *****************
   852 ;; Defined at:
   853 ;;		line 423 in file "main.c"
   854 ;; Parameters:    Size  Location     Type
   855 ;;		None
   856 ;; Auto vars:     Size  Location     Type
   857 ;;		None
   858 ;; Return value:  Size  Location     Type
   859 ;;                  1    wreg      void 
   860 ;; Registers used:
   861 ;;		wreg, fsr2l, fsr2h, status,2, status,0, prodl, prodh, cstack
   862 ;; Tracked objects:
   863 ;;		On entry : 0/0
   864 ;;		On exit  : 0/0
   865 ;;		Unchanged: 0/0
   866 ;; Data sizes:     COMRAM   BANK0   BANK1   BANK2   BANK3   BANK4   BANK5   BANK6   BANK7   BANK8   BANK9  BANK10  BANK1
      +1  BANK12  BANK13  BANK14  BANK15
   867 ;;      Params:         0       0       0       0       0       0       0       0       0       0       0       0       
      +0       0       0       0       0
   868 ;;      Locals:         0       0       0       0       0       0       0       0       0       0       0       0       
      +0       0       0       0       0
   869 ;;      Temps:          0       4       0       0       0       0       0       0       0       0       0       0       
      +0       0       0       0       0
   870 ;;      Totals:         0       4       0       0       0       0       0       0       0       0       0       0       
      +0       0       0       0       0
   871 ;;Total ram usage:        4 bytes
   872 ;; Hardware stack levels required when called:    4
   873 ;; This function calls:
   874 ;;		_Configure_HW
   875 ;;		_Control_down
   876 ;;		_Control_up
   877 ;;		_Set_PWM2_Duty
   878 ;;		_Set_PWM3_Duty
   879 ;;		___fldiv
   880 ;;		___flge
   881 ;;		___flmul
   882 ;;		___fltol
   883 ;;		___lwdiv
   884 ;;		___xxtofl
   885 ;; This function is called by:
   886 ;;		Startup code after reset
   887 ;; This function uses a non-reentrant model
   888 ;;
   889                           
   890                           	psect	text0
   891  00100A                     __ptext0:
   892                           	opt stack 0
   893  00100A                     _main:
   894                           	opt stack 27
   895                           
   896                           ;main.c: 425: Configure_HW();
   897                           
   898                           ;incstack = 0
   899  00100A  EC3E  F016         	call	_Configure_HW	;wreg free
   900                           
   901                           ;main.c: 426: (INTCONbits.GIE = 1);
   902  00100E  8EF2               	bsf	intcon,7,c	;volatile
   903                           
   904                           ;main.c: 427: (INTCONbits.PEIE = 1);
   905  001010  8CF2               	bsf	intcon,6,c	;volatile
   906                           
   907                           ;main.c: 428: (INTCONbits.TMR0IE = 1);
   908  001012  8AF2               	bsf	intcon,5,c	;volatile
   909                           
   910                           ;main.c: 429: (PIE1bits.SSP1IE = 1);
   911  001014  869D               	bsf	3997,3,c	;volatile
   912                           
   913                           ;main.c: 431: Set_PWM2_Duty(0);
   914  001016  0E00               	movlw	0
   915  001018  0100               	movlb	0	; () banked
   916  00101A  6F61               	movwf	(Set_PWM2_Duty@dutyValue+1)& (0+255),b
   917  00101C  0E00               	movlw	0
   918  00101E  6F60               	movwf	Set_PWM2_Duty@dutyValue& (0+255),b
   919  001020  ECB5  F016         	call	_Set_PWM2_Duty	;wreg free
   920                           
   921                           ;main.c: 432: Set_PWM3_Duty(0);
   922  001024  0E00               	movlw	0
   923  001026  0100               	movlb	0	; () banked
   924  001028  6F61               	movwf	(Set_PWM3_Duty@dutyValue+1)& (0+255),b
   925  00102A  0E00               	movlw	0
   926  00102C  6F60               	movwf	Set_PWM3_Duty@dutyValue& (0+255),b
   927  00102E  EC97  F016         	call	_Set_PWM3_Duty	;wreg free
   928                           
   929                           ;main.c: 433: LATBbits.LATB2 = 0;
   930  001032  948A               	bcf	3978,2,c	;volatile
   931                           
   932                           ;main.c: 434: LATBbits.LATB1 = 0;
   933  001034  928A               	bcf	3978,1,c	;volatile
   934                           
   935                           ;main.c: 435: LATAbits.LATA3 = 1;
   936  001036  8689               	bsf	3977,3,c	;volatile
   937                           
   938                           ;main.c: 437: ref_vb = 32;
   939  001038  0E00               	movlw	0
   940  00103A  0100               	movlb	0	; () banked
   941  00103C  6FE3               	movwf	(_ref_vb+1)& (0+255),b
   942  00103E  0E20               	movlw	32
   943  001040  6FE2               	movwf	_ref_vb& (0+255),b
   944                           
   945                           ; BSR set to: 0
   946                           ;main.c: 438: ref_vbReq = 32;
   947  001042  0E20               	movlw	32
   948  001044  6E5A               	movwf	_ref_vbReq,c
   949                           
   950                           ; BSR set to: 0
   951                           ;main.c: 439: valor[0] = 32;
   952  001046  0E00               	movlw	0
   953  001048  6FD1               	movwf	(_valor+1)& (0+255),b
   954  00104A  0E20               	movlw	32
   955  00104C  6FD0               	movwf	_valor& (0+255),b
   956  00104E                     
   957                           ;main.c: 442: {
   958                           ;main.c: 445: for (i = 0; i < 5; i++)
   959                           
   960                           ; BSR set to: 0
   961  00104E  0E00               	movlw	0
   962  001050  0100               	movlb	0	; () banked
   963  001052  6FE4               	movwf	_i& (0+255),b
   964  001054                     l3748:
   965                           
   966                           ; BSR set to: 0
   967  001054  0E04               	movlw	4
   968  001056  65E4               	cpfsgt	_i& (0+255),b
   969  001058  D001               	goto	l209
   970  00105A  D01D               	goto	u3860
   971  00105C                     l209:
   972                           
   973                           ; BSR set to: 0
   974                           ;main.c: 446: {
   975                           ;main.c: 447: ADCON0 = 0b00000101;
   976                           
   977                           ; BSR set to: 0
   978  00105C  0E05               	movlw	5
   979  00105E  6EC2               	movwf	4034,c	;volatile
   980                           
   981                           ; BSR set to: 0
   982                           ;main.c: 448: ADCON0bits.GO = 1;
   983  001060  82C2               	bsf	4034,1,c	;volatile
   984  001062                     
   985                           ; BSR set to: 0
   986                           ;main.c: 450: {
   987  001062  B2C2               	btfsc	4034,1,c	;volatile
   988  001064  D7FE               	goto	l212
   989                           
   990                           ;main.c: 451: };
   991                           ;main.c: 452: tps_ad = ADRESH * 256 + ADRESL;
   992  001066  50C4               	movf	4036,w,c	;volatile
   993  001068  0100               	movlb	0	; () banked
   994  00106A  6FA5               	movwf	(??_main+1)& (0+255),b
   995  00106C  6BA4               	clrf	??_main& (0+255),b
   996  00106E  50C3               	movf	4035,w,c	;volatile
   997  001070  25A4               	addwf	??_main& (0+255),w,b
   998  001072  6FDA               	movwf	_tps_ad& (0+255),b
   999  001074  0E00               	movlw	0
  1000  001076  21A5               	addwfc	(??_main+1)& (0+255),w,b
  1001  001078  6FDB               	movwf	(_tps_ad+1)& (0+255),b
  1002                           
  1003                           ; BSR set to: 0
  1004                           ;main.c: 456: vetor_leitura[i] = tps_ad;
  1005  00107A  51E4               	movf	_i& (0+255),w,b
  1006  00107C  0D02               	mullw	2
  1007  00107E  0E00               	movlw	low _vetor_leitura
  1008  001080  24F3               	addwf	prodl,w,c
  1009  001082  6ED9               	movwf	fsr2l,c
  1010  001084  0E01               	movlw	high _vetor_leitura
  1011  001086  20F4               	addwfc	prodh,w,c
  1012  001088  6EDA               	movwf	fsr2h,c
  1013  00108A  C0DA  FFDE         	movff	_tps_ad,postinc2
  1014  00108E  C0DB  FFDD         	movff	_tps_ad+1,postdec2
  1015                           
  1016                           ; BSR set to: 0
  1017  001092  2BE4               	incf	_i& (0+255),f,b
  1018  001094  D7DF               	goto	l3748
  1019  001096                     u3860:
  1020                           
  1021                           ; BSR set to: 0
  1022                           ;main.c: 457: }
  1023                           ;main.c: 462: media = vetor_leitura[0] + vetor_leitura[1] + vetor_leitura[2] + vetor_lei
      +                          tura[3] + vetor_leitura[4];
  1024                           
  1025                           ; BSR set to: 0
  1026  001096  0101               	movlb	1	; () banked
  1027  001098  5104               	movf	(_vetor_leitura+4)& (0+255),w,b
  1028  00109A  2502               	addwf	(_vetor_leitura+2)& (0+255),w,b
  1029  00109C  0100               	movlb	0	; () banked
  1030  00109E  6FA4               	movwf	??_main& (0+255),b
  1031  0010A0  0101               	movlb	1	; () banked
  1032  0010A2  5105               	movf	(_vetor_leitura+5)& (0+255),w,b
  1033  0010A4  2103               	addwfc	(_vetor_leitura+3)& (0+255),w,b
  1034  0010A6  0100               	movlb	0	; () banked
  1035  0010A8  6FA5               	movwf	(??_main+1)& (0+255),b
  1036  0010AA  0101               	movlb	1	; () banked
  1037  0010AC  5106               	movf	(_vetor_leitura+6)& (0+255),w,b
  1038  0010AE  0100               	movlb	0	; () banked
  1039  0010B0  27A4               	addwf	??_main& (0+255),f,b
  1040  0010B2  0101               	movlb	1	; () banked
  1041  0010B4  5107               	movf	(_vetor_leitura+7)& (0+255),w,b
  1042  0010B6  0100               	movlb	0	; () banked
  1043  0010B8  23A5               	addwfc	(??_main+1)& (0+255),f,b
  1044  0010BA  0101               	movlb	1	; () banked
  1045  0010BC  5108               	movf	(_vetor_leitura+8)& (0+255),w,b
  1046  0010BE  0100               	movlb	0	; () banked
  1047  0010C0  27A4               	addwf	??_main& (0+255),f,b
  1048  0010C2  0101               	movlb	1	; () banked
  1049  0010C4  5109               	movf	(_vetor_leitura+9)& (0+255),w,b
  1050  0010C6  0100               	movlb	0	; () banked
  1051  0010C8  23A5               	addwfc	(??_main+1)& (0+255),f,b
  1052  0010CA  0101               	movlb	1	; () banked
  1053  0010CC  5100               	movf	_vetor_leitura& (0+255),w,b
  1054  0010CE  0100               	movlb	0	; () banked
  1055  0010D0  25A4               	addwf	??_main& (0+255),w,b
  1056  0010D2  6FE0               	movwf	_media& (0+255),b
  1057  0010D4  0101               	movlb	1	; () banked
  1058  0010D6  5101               	movf	(_vetor_leitura+1)& (0+255),w,b
  1059  0010D8  0100               	movlb	0	; () banked
  1060  0010DA  21A5               	addwfc	(??_main+1)& (0+255),w,b
  1061  0010DC  6FE1               	movwf	(_media+1)& (0+255),b
  1062                           
  1063                           ; BSR set to: 0
  1064                           ;main.c: 463: media = media / 5;
  1065  0010DE  C0E0  F060         	movff	_media,___lwdiv@dividend
  1066  0010E2  C0E1  F061         	movff	_media+1,___lwdiv@dividend+1
  1067  0010E6  0E00               	movlw	0
  1068  0010E8  6F63               	movwf	(___lwdiv@divisor+1)& (0+255),b
  1069  0010EA  0E05               	movlw	5
  1070  0010EC  6F62               	movwf	___lwdiv@divisor& (0+255),b
  1071  0010EE  EC6D  F016         	call	___lwdiv	;wreg free
  1072  0010F2  C060  F0E0         	movff	?___lwdiv,_media
  1073  0010F6  C061  F0E1         	movff	?___lwdiv+1,_media+1
  1074                           
  1075                           ;main.c: 464: value = media;
  1076  0010FA  C0E0  F0EA         	movff	_media,_value
  1077  0010FE  C0E1  F0EB         	movff	_media+1,_value+1
  1078                           
  1079                           ;main.c: 465: media = 0;
  1080  001102  0E00               	movlw	0
  1081  001104  0100               	movlb	0	; () banked
  1082  001106  6FE1               	movwf	(_media+1)& (0+255),b
  1083  001108  0E00               	movlw	0
  1084  00110A  6FE0               	movwf	_media& (0+255),b
  1085                           
  1086                           ; BSR set to: 0
  1087                           ;main.c: 466: if (value < 117)
  1088  00110C  51EB               	movf	(_value+1)& (0+255),w,b
  1089  00110E  E108               	bnz	l3776
  1090  001110  0E75               	movlw	117
  1091  001112  5DEA               	subwf	_value& (0+255),w,b
  1092  001114  B0D8               	btfsc	status,0,c
  1093  001116  D004               	goto	l214
  1094                           
  1095                           ; BSR set to: 0
  1096                           ;main.c: 467: value = 117;
  1097  001118  0E00               	movlw	0
  1098  00111A  6FEB               	movwf	(_value+1)& (0+255),b
  1099  00111C  0E75               	movlw	117
  1100  00111E  6FEA               	movwf	_value& (0+255),b
  1101  001120                     l214:
  1102  001120                     l3776:
  1103                           
  1104                           ; BSR set to: 0
  1105                           ;main.c: 468: if (value > 922)
  1106  001120  0E9B               	movlw	155
  1107  001122  5DEA               	subwf	_value& (0+255),w,b
  1108  001124  0E03               	movlw	3
  1109  001126  59EB               	subwfb	(_value+1)& (0+255),w,b
  1110  001128  A0D8               	btfss	status,0,c
  1111  00112A  D004               	goto	l215
  1112                           
  1113                           ; BSR set to: 0
  1114                           ;main.c: 469: value = 922;
  1115  00112C  0E03               	movlw	3
  1116  00112E  6FEB               	movwf	(_value+1)& (0+255),b
  1117  001130  0E9A               	movlw	154
  1118  001132  6FEA               	movwf	_value& (0+255),b
  1119  001134                     l215:
  1120                           
  1121                           ; BSR set to: 0
  1122                           ;main.c: 470: Angle = ((90.0f - 0.0f)*(value - 117) / (922 - 117)) + 0.0f;
  1123                           
  1124                           ; BSR set to: 0
  1125  001134  0E00               	movlw	0
  1126  001136  6F72               	movwf	___flmul@a& (0+255),b
  1127  001138  0E00               	movlw	0
  1128  00113A  6F73               	movwf	(___flmul@a+1)& (0+255),b
  1129  00113C  0EB4               	movlw	180
  1130  00113E  6F74               	movwf	(___flmul@a+2)& (0+255),b
  1131  001140  0E42               	movlw	66
  1132  001142  6F75               	movwf	(___flmul@a+3)& (0+255),b
  1133  001144  0E8B               	movlw	139
  1134  001146  6FA4               	movwf	??_main& (0+255),b
  1135  001148  0EFF               	movlw	255
  1136  00114A  6FA5               	movwf	(??_main+1)& (0+255),b
  1137  00114C  C0EA  F0A6         	movff	_value,??_main+2
  1138  001150  C0EB  F0A7         	movff	_value+1,??_main+3
  1139  001154  51A4               	movf	??_main& (0+255),w,b
  1140  001156  27A6               	addwf	(??_main+2)& (0+255),f,b
  1141  001158  51A5               	movf	(??_main+1)& (0+255),w,b
  1142  00115A  23A7               	addwfc	(??_main+3)& (0+255),f,b
  1143  00115C  C0A6  F060         	movff	??_main+2,___xxtofl@val
  1144  001160  C0A7  F061         	movff	??_main+3,___xxtofl@val+1
  1145  001164  6B62               	clrf	(___xxtofl@val+2)& (0+255),b
  1146  001166  6B63               	clrf	(___xxtofl@val+3)& (0+255),b
  1147  001168  0E00               	movlw	0
  1148  00116A  ECB1  F013         	call	___xxtofl
  1149  00116E  C060  F06E         	movff	?___xxtofl,___flmul@b
  1150  001172  C061  F06F         	movff	?___xxtofl+1,___flmul@b+1
  1151  001176  C062  F070         	movff	?___xxtofl+2,___flmul@b+2
  1152  00117A  C063  F071         	movff	?___xxtofl+3,___flmul@b+3
  1153  00117E  ECEA  F009         	call	___flmul	;wreg free
  1154  001182  C06E  F087         	movff	?___flmul,___fldiv@b
  1155  001186  C06F  F088         	movff	?___flmul+1,___fldiv@b+1
  1156  00118A  C070  F089         	movff	?___flmul+2,___fldiv@b+2
  1157  00118E  C071  F08A         	movff	?___flmul+3,___fldiv@b+3
  1158  001192  0E00               	movlw	0
  1159  001194  0100               	movlb	0	; () banked
  1160  001196  6F8B               	movwf	___fldiv@a& (0+255),b
  1161  001198  0E40               	movlw	64
  1162  00119A  6F8C               	movwf	(___fldiv@a+1)& (0+255),b
  1163  00119C  0E49               	movlw	73
  1164  00119E  6F8D               	movwf	(___fldiv@a+2)& (0+255),b
  1165  0011A0  0E44               	movlw	68
  1166  0011A2  6F8E               	movwf	(___fldiv@a+3)& (0+255),b
  1167  0011A4  ECDA  F00E         	call	___fldiv	;wreg free
  1168  0011A8  C087  F0EC         	movff	?___fldiv,_Angle
  1169  0011AC  C088  F0ED         	movff	?___fldiv+1,_Angle+1
  1170  0011B0  C089  F0EE         	movff	?___fldiv+2,_Angle+2
  1171  0011B4  C08A  F0EF         	movff	?___fldiv+3,_Angle+3
  1172                           
  1173                           ;main.c: 472: if (EnableControl)
  1174  0011B8  0100               	movlb	0	; () banked
  1175  0011BA  51E5               	movf	_EnableControl& (0+255),w,b
  1176  0011BC  B4D8               	btfsc	status,2,c
  1177  0011BE  D747               	goto	l208
  1178                           
  1179                           ; BSR set to: 0
  1180                           ;main.c: 473: {
  1181                           ;main.c: 474: EnableControl = 0;
  1182  0011C0  0E00               	movlw	0
  1183  0011C2  6FE5               	movwf	_EnableControl& (0+255),b
  1184                           
  1185                           ; BSR set to: 0
  1186                           ;main.c: 482: if ((SetPoint >= 5.5f && Angle >= 4.9) || (SetPoint < 5.5f && Angle >= 5.5
      +                          f))
  1187  0011C4  C0F0  F060         	movff	_SetPoint,___flge@ff1
  1188  0011C8  C0F1  F061         	movff	_SetPoint+1,___flge@ff1+1
  1189  0011CC  C0F2  F062         	movff	_SetPoint+2,___flge@ff1+2
  1190  0011D0  C0F3  F063         	movff	_SetPoint+3,___flge@ff1+3
  1191  0011D4  0E00               	movlw	0
  1192  0011D6  6F64               	movwf	___flge@ff2& (0+255),b
  1193  0011D8  0E00               	movlw	0
  1194  0011DA  6F65               	movwf	(___flge@ff2+1)& (0+255),b
  1195  0011DC  0EB0               	movlw	176
  1196  0011DE  6F66               	movwf	(___flge@ff2+2)& (0+255),b
  1197  0011E0  0E40               	movlw	64
  1198  0011E2  6F67               	movwf	(___flge@ff2+3)& (0+255),b
  1199  0011E4  EC03  F015         	call	___flge	;wreg free
  1200  0011E8  0100               	movlb	0	; () banked
  1201  0011EA  A0D8               	btfss	status,0,c
  1202  0011EC  D015               	goto	u3910
  1203                           
  1204                           ; BSR set to: 0
  1205  0011EE  C0EC  F060         	movff	_Angle,___flge@ff1
  1206  0011F2  C0ED  F061         	movff	_Angle+1,___flge@ff1+1
  1207  0011F6  C0EE  F062         	movff	_Angle+2,___flge@ff1+2
  1208  0011FA  C0EF  F063         	movff	_Angle+3,___flge@ff1+3
  1209  0011FE  0ECD               	movlw	205
  1210  001200  6F64               	movwf	___flge@ff2& (0+255),b
  1211  001202  0ECC               	movlw	204
  1212  001204  6F65               	movwf	(___flge@ff2+1)& (0+255),b
  1213  001206  0E9C               	movlw	156
  1214  001208  6F66               	movwf	(___flge@ff2+2)& (0+255),b
  1215  00120A  0E40               	movlw	64
  1216  00120C  6F67               	movwf	(___flge@ff2+3)& (0+255),b
  1217  00120E  EC03  F015         	call	___flge	;wreg free
  1218  001212  0100               	movlb	0	; () banked
  1219  001214  B0D8               	btfsc	status,0,c
  1220  001216  D02A               	goto	u3930
  1221  001218                     u3910:
  1222                           
  1223                           ; BSR set to: 0
  1224                           
  1225                           ; BSR set to: 0
  1226  001218  C0F0  F060         	movff	_SetPoint,___flge@ff1
  1227  00121C  C0F1  F061         	movff	_SetPoint+1,___flge@ff1+1
  1228  001220  C0F2  F062         	movff	_SetPoint+2,___flge@ff1+2
  1229  001224  C0F3  F063         	movff	_SetPoint+3,___flge@ff1+3
  1230  001228  0E00               	movlw	0
  1231  00122A  6F64               	movwf	___flge@ff2& (0+255),b
  1232  00122C  0E00               	movlw	0
  1233  00122E  6F65               	movwf	(___flge@ff2+1)& (0+255),b
  1234  001230  0EB0               	movlw	176
  1235  001232  6F66               	movwf	(___flge@ff2+2)& (0+255),b
  1236  001234  0E40               	movlw	64
  1237  001236  6F67               	movwf	(___flge@ff2+3)& (0+255),b
  1238  001238  EC03  F015         	call	___flge	;wreg free
  1239  00123C  0100               	movlb	0	; () banked
  1240  00123E  B0D8               	btfsc	status,0,c
  1241  001240  D044               	goto	l217
  1242                           
  1243                           ; BSR set to: 0
  1244  001242  C0EC  F060         	movff	_Angle,___flge@ff1
  1245  001246  C0ED  F061         	movff	_Angle+1,___flge@ff1+1
  1246  00124A  C0EE  F062         	movff	_Angle+2,___flge@ff1+2
  1247  00124E  C0EF  F063         	movff	_Angle+3,___flge@ff1+3
  1248  001252  0E00               	movlw	0
  1249  001254  6F64               	movwf	___flge@ff2& (0+255),b
  1250  001256  0E00               	movlw	0
  1251  001258  6F65               	movwf	(___flge@ff2+1)& (0+255),b
  1252  00125A  0EB0               	movlw	176
  1253  00125C  6F66               	movwf	(___flge@ff2+2)& (0+255),b
  1254  00125E  0E40               	movlw	64
  1255  001260  6F67               	movwf	(___flge@ff2+3)& (0+255),b
  1256  001262  EC03  F015         	call	___flge	;wreg free
  1257  001266  0100               	movlb	0	; () banked
  1258  001268  A0D8               	btfss	status,0,c
  1259  00126A  D02F               	goto	l217
  1260  00126C                     u3930:
  1261                           
  1262                           ; BSR set to: 0
  1263                           ;main.c: 483: {
  1264                           ;main.c: 486: Set_PWM3_Duty(0);
  1265                           
  1266                           ; BSR set to: 0
  1267  00126C  0E00               	movlw	0
  1268  00126E  6F61               	movwf	(Set_PWM3_Duty@dutyValue+1)& (0+255),b
  1269  001270  0E00               	movlw	0
  1270  001272  6F60               	movwf	Set_PWM3_Duty@dutyValue& (0+255),b
  1271  001274  EC97  F016         	call	_Set_PWM3_Duty	;wreg free
  1272                           
  1273                           ;main.c: 488: Control_up();
  1274  001278  ECA7  F012         	call	_Control_up	;wreg free
  1275                           
  1276                           ;main.c: 489: pwm = (int) (Out1 * 10.23);
  1277  00127C  0E14               	movlw	20
  1278  00127E  0100               	movlb	0	; () banked
  1279  001280  6F72               	movwf	___flmul@a& (0+255),b
  1280  001282  0EAE               	movlw	174
  1281  001284  6F73               	movwf	(___flmul@a+1)& (0+255),b
  1282  001286  0E23               	movlw	35
  1283  001288  6F74               	movwf	(___flmul@a+2)& (0+255),b
  1284  00128A  0E41               	movlw	65
  1285  00128C  6F75               	movwf	(___flmul@a+3)& (0+255),b
  1286  00128E  C0AC  F06E         	movff	_Out1,___flmul@b
  1287  001292  C0AD  F06F         	movff	_Out1+1,___flmul@b+1
  1288  001296  C0AE  F070         	movff	_Out1+2,___flmul@b+2
  1289  00129A  C0AF  F071         	movff	_Out1+3,___flmul@b+3
  1290  00129E  ECEA  F009         	call	___flmul	;wreg free
  1291  0012A2  C06E  F087         	movff	?___flmul,___fltol@f1
  1292  0012A6  C06F  F088         	movff	?___flmul+1,___fltol@f1+1
  1293  0012AA  C070  F089         	movff	?___flmul+2,___fltol@f1+2
  1294  0012AE  C071  F08A         	movff	?___flmul+3,___fltol@f1+3
  1295  0012B2  EC94  F015         	call	___fltol	;wreg free
  1296  0012B6  C087  F0D4         	movff	?___fltol,_pwm
  1297  0012BA  C088  F0D5         	movff	?___fltol+1,_pwm+1
  1298                           
  1299                           ;main.c: 490: Set_PWM2_Duty(pwm);
  1300  0012BE  C0D4  F060         	movff	_pwm,Set_PWM2_Duty@dutyValue
  1301  0012C2  C0D5  F061         	movff	_pwm+1,Set_PWM2_Duty@dutyValue+1
  1302  0012C6  ECB5  F016         	call	_Set_PWM2_Duty	;wreg free
  1303  0012CA                     l217:
  1304                           
  1305                           ;main.c: 493: }
  1306                           ;main.c: 495: if ((SetPoint < 5.5f && Angle < 6.1) || (SetPoint > 5.5f && Angle < 5.5f))
  1307  0012CA  C0F0  F060         	movff	_SetPoint,___flge@ff1
  1308  0012CE  C0F1  F061         	movff	_SetPoint+1,___flge@ff1+1
  1309  0012D2  C0F2  F062         	movff	_SetPoint+2,___flge@ff1+2
  1310  0012D6  C0F3  F063         	movff	_SetPoint+3,___flge@ff1+3
  1311  0012DA  0E00               	movlw	0
  1312  0012DC  0100               	movlb	0	; () banked
  1313  0012DE  6F64               	movwf	___flge@ff2& (0+255),b
  1314  0012E0  0E00               	movlw	0
  1315  0012E2  6F65               	movwf	(___flge@ff2+1)& (0+255),b
  1316  0012E4  0EB0               	movlw	176
  1317  0012E6  6F66               	movwf	(___flge@ff2+2)& (0+255),b
  1318  0012E8  0E40               	movlw	64
  1319  0012EA  6F67               	movwf	(___flge@ff2+3)& (0+255),b
  1320  0012EC  EC03  F015         	call	___flge	;wreg free
  1321  0012F0  0100               	movlb	0	; () banked
  1322  0012F2  B0D8               	btfsc	status,0,c
  1323  0012F4  D015               	goto	u3950
  1324                           
  1325                           ; BSR set to: 0
  1326  0012F6  C0EC  F060         	movff	_Angle,___flge@ff1
  1327  0012FA  C0ED  F061         	movff	_Angle+1,___flge@ff1+1
  1328  0012FE  C0EE  F062         	movff	_Angle+2,___flge@ff1+2
  1329  001302  C0EF  F063         	movff	_Angle+3,___flge@ff1+3
  1330  001306  0E33               	movlw	51
  1331  001308  6F64               	movwf	___flge@ff2& (0+255),b
  1332  00130A  0E33               	movlw	51
  1333  00130C  6F65               	movwf	(___flge@ff2+1)& (0+255),b
  1334  00130E  0EC3               	movlw	195
  1335  001310  6F66               	movwf	(___flge@ff2+2)& (0+255),b
  1336  001312  0E40               	movlw	64
  1337  001314  6F67               	movwf	(___flge@ff2+3)& (0+255),b
  1338  001316  EC03  F015         	call	___flge	;wreg free
  1339  00131A  0100               	movlb	0	; () banked
  1340  00131C  A0D8               	btfss	status,0,c
  1341  00131E  D02A               	goto	u3970
  1342  001320                     u3950:
  1343                           
  1344                           ; BSR set to: 0
  1345                           
  1346                           ; BSR set to: 0
  1347  001320  0E00               	movlw	0
  1348  001322  6F60               	movwf	___flge@ff1& (0+255),b
  1349  001324  0E00               	movlw	0
  1350  001326  6F61               	movwf	(___flge@ff1+1)& (0+255),b
  1351  001328  0EB0               	movlw	176
  1352  00132A  6F62               	movwf	(___flge@ff1+2)& (0+255),b
  1353  00132C  0E40               	movlw	64
  1354  00132E  6F63               	movwf	(___flge@ff1+3)& (0+255),b
  1355  001330  C0F0  F064         	movff	_SetPoint,___flge@ff2
  1356  001334  C0F1  F065         	movff	_SetPoint+1,___flge@ff2+1
  1357  001338  C0F2  F066         	movff	_SetPoint+2,___flge@ff2+2
  1358  00133C  C0F3  F067         	movff	_SetPoint+3,___flge@ff2+3
  1359  001340  EC03  F015         	call	___flge	;wreg free
  1360  001344  0100               	movlb	0	; () banked
  1361  001346  B0D8               	btfsc	status,0,c
  1362  001348  D682               	goto	l208
  1363                           
  1364                           ; BSR set to: 0
  1365  00134A  C0EC  F060         	movff	_Angle,___flge@ff1
  1366  00134E  C0ED  F061         	movff	_Angle+1,___flge@ff1+1
  1367  001352  C0EE  F062         	movff	_Angle+2,___flge@ff1+2
  1368  001356  C0EF  F063         	movff	_Angle+3,___flge@ff1+3
  1369  00135A  0E00               	movlw	0
  1370  00135C  6F64               	movwf	___flge@ff2& (0+255),b
  1371  00135E  0E00               	movlw	0
  1372  001360  6F65               	movwf	(___flge@ff2+1)& (0+255),b
  1373  001362  0EB0               	movlw	176
  1374  001364  6F66               	movwf	(___flge@ff2+2)& (0+255),b
  1375  001366  0E40               	movlw	64
  1376  001368  6F67               	movwf	(___flge@ff2+3)& (0+255),b
  1377  00136A  EC03  F015         	call	___flge	;wreg free
  1378  00136E  0100               	movlb	0	; () banked
  1379  001370  B0D8               	btfsc	status,0,c
  1380  001372  D66D               	goto	l208
  1381  001374                     u3970:
  1382                           
  1383                           ; BSR set to: 0
  1384                           ;main.c: 496: {
  1385                           ;main.c: 498: Set_PWM2_Duty(0);
  1386                           
  1387                           ; BSR set to: 0
  1388  001374  0E00               	movlw	0
  1389  001376  6F61               	movwf	(Set_PWM2_Duty@dutyValue+1)& (0+255),b
  1390  001378  0E00               	movlw	0
  1391  00137A  6F60               	movwf	Set_PWM2_Duty@dutyValue& (0+255),b
  1392  00137C  ECB5  F016         	call	_Set_PWM2_Duty	;wreg free
  1393                           
  1394                           ;main.c: 501: Control_down();
  1395  001380  EC8F  F011         	call	_Control_down	;wreg free
  1396                           
  1397                           ;main.c: 502: pwm = (int) (Out2 * 10.23);
  1398  001384  0E14               	movlw	20
  1399  001386  0100               	movlb	0	; () banked
  1400  001388  6F72               	movwf	___flmul@a& (0+255),b
  1401  00138A  0EAE               	movlw	174
  1402  00138C  6F73               	movwf	(___flmul@a+1)& (0+255),b
  1403  00138E  0E23               	movlw	35
  1404  001390  6F74               	movwf	(___flmul@a+2)& (0+255),b
  1405  001392  0E41               	movlw	65
  1406  001394  6F75               	movwf	(___flmul@a+3)& (0+255),b
  1407  001396  C0A8  F06E         	movff	_Out2,___flmul@b
  1408  00139A  C0A9  F06F         	movff	_Out2+1,___flmul@b+1
  1409  00139E  C0AA  F070         	movff	_Out2+2,___flmul@b+2
  1410  0013A2  C0AB  F071         	movff	_Out2+3,___flmul@b+3
  1411  0013A6  ECEA  F009         	call	___flmul	;wreg free
  1412  0013AA  C06E  F087         	movff	?___flmul,___fltol@f1
  1413  0013AE  C06F  F088         	movff	?___flmul+1,___fltol@f1+1
  1414  0013B2  C070  F089         	movff	?___flmul+2,___fltol@f1+2
  1415  0013B6  C071  F08A         	movff	?___flmul+3,___fltol@f1+3
  1416  0013BA  EC94  F015         	call	___fltol	;wreg free
  1417  0013BE  C087  F0D4         	movff	?___fltol,_pwm
  1418  0013C2  C088  F0D5         	movff	?___fltol+1,_pwm+1
  1419                           
  1420                           ;main.c: 503: Set_PWM3_Duty(pwm);
  1421  0013C6  C0D4  F060         	movff	_pwm,Set_PWM3_Duty@dutyValue
  1422  0013CA  C0D5  F061         	movff	_pwm+1,Set_PWM3_Duty@dutyValue+1
  1423  0013CE  EC97  F016         	call	_Set_PWM3_Duty	;wreg free
  1424  0013D2  D63D               	goto	l208
  1425  0013D4                     __end_of_main:
  1426                           	opt stack 0
  1427                           tblptru	equ	0xFF8
  1428                           tblptrh	equ	0xFF7
  1429                           tblptrl	equ	0xFF6
  1430                           tablat	equ	0xFF5
  1431                           prodh	equ	0xFF4
  1432                           prodl	equ	0xFF3
  1433                           intcon	equ	0xFF2
  1434                           postinc0	equ	0xFEE
  1435                           wreg	equ	0xFE8
  1436                           postdec1	equ	0xFE5
  1437                           fsr1l	equ	0xFE1
  1438                           postinc2	equ	0xFDE
  1439                           postdec2	equ	0xFDD
  1440                           fsr2h	equ	0xFDA
  1441                           fsr2l	equ	0xFD9
  1442                           status	equ	0xFD8
  1443                           
  1444 ;; *************** function ___xxtofl *****************
  1445 ;; Defined at:
  1446 ;;		line 10 in file "C:\Program Files (x86)\Microchip\xc8\v1.45\sources\common\xxtofl.c"
  1447 ;; Parameters:    Size  Location     Type
  1448 ;;  sign            1    wreg     unsigned char 
  1449 ;;  val             4    0[BANK0 ] long 
  1450 ;; Auto vars:     Size  Location     Type
  1451 ;;  sign            1    8[BANK0 ] unsigned char 
  1452 ;;  arg             4   10[BANK0 ] unsigned long 
  1453 ;;  exp             1    9[BANK0 ] unsigned char 
  1454 ;; Return value:  Size  Location     Type
  1455 ;;                  4    0[BANK0 ] unsigned char 
  1456 ;; Registers used:
  1457 ;;		wreg, status,2, status,0
  1458 ;; Tracked objects:
  1459 ;;		On entry : 0/0
  1460 ;;		On exit  : 0/0
  1461 ;;		Unchanged: 0/0
  1462 ;; Data sizes:     COMRAM   BANK0   BANK1   BANK2   BANK3   BANK4   BANK5   BANK6   BANK7   BANK8   BANK9  BANK10  BANK1
      +1  BANK12  BANK13  BANK14  BANK15
  1463 ;;      Params:         0       4       0       0       0       0       0       0       0       0       0       0       
      +0       0       0       0       0
  1464 ;;      Locals:         0       6       0       0       0       0       0       0       0       0       0       0       
      +0       0       0       0       0
  1465 ;;      Temps:          0       4       0       0       0       0       0       0       0       0       0       0       
      +0       0       0       0       0
  1466 ;;      Totals:         0      14       0       0       0       0       0       0       0       0       0       0       
      +0       0       0       0       0
  1467 ;;Total ram usage:       14 bytes
  1468 ;; Hardware stack levels used:    1
  1469 ;; Hardware stack levels required when called:    2
  1470 ;; This function calls:
  1471 ;;		Nothing
  1472 ;; This function is called by:
  1473 ;;		_main
  1474 ;;		_controle_vb
  1475 ;; This function uses a non-reentrant model
  1476 ;;
  1477                           
  1478                           	psect	text1
  1479  002762                     __ptext1:
  1480                           	opt stack 0
  1481  002762                     ___xxtofl:
  1482                           	opt stack 28
  1483                           
  1484                           ;incstack = 0
  1485                           ;___xxtofl@sign stored from wreg
  1486  002762  0100               	movlb	0	; () banked
  1487  002764  6F68               	movwf	___xxtofl@sign& (0+255),b
  1488  002766  0100               	movlb	0	; () banked
  1489  002768  5168               	movf	___xxtofl@sign& (0+255),w,b
  1490  00276A  A4D8               	btfss	status,2,c
  1491                           
  1492                           ; BSR set to: 0
  1493  00276C  AF63               	btfss	(___xxtofl@val+3)& (0+255),7,b
  1494  00276E  D01A               	goto	l1102
  1495                           
  1496                           ; BSR set to: 0
  1497  002770  C060  F064         	movff	___xxtofl@val,??___xxtofl
  1498  002774  C061  F065         	movff	___xxtofl@val+1,??___xxtofl+1
  1499  002778  C062  F066         	movff	___xxtofl@val+2,??___xxtofl+2
  1500  00277C  C063  F067         	movff	___xxtofl@val+3,??___xxtofl+3
  1501  002780  1F64               	comf	??___xxtofl& (0+255),f,b
  1502  002782  1F65               	comf	(??___xxtofl+1)& (0+255),f,b
  1503  002784  1F66               	comf	(??___xxtofl+2)& (0+255),f,b
  1504  002786  1F67               	comf	(??___xxtofl+3)& (0+255),f,b
  1505  002788  2B64               	incf	??___xxtofl& (0+255),f,b
  1506  00278A  0E00               	movlw	0
  1507  00278C  2365               	addwfc	(??___xxtofl+1)& (0+255),f,b
  1508  00278E  2366               	addwfc	(??___xxtofl+2)& (0+255),f,b
  1509  002790  2367               	addwfc	(??___xxtofl+3)& (0+255),f,b
  1510  002792  C064  F06A         	movff	??___xxtofl,___xxtofl@arg
  1511  002796  C065  F06B         	movff	??___xxtofl+1,___xxtofl@arg+1
  1512  00279A  C066  F06C         	movff	??___xxtofl+2,___xxtofl@arg+2
  1513  00279E  C067  F06D         	movff	??___xxtofl+3,___xxtofl@arg+3
  1514  0027A2  D008               	goto	l1103
  1515  0027A4                     l1102:
  1516                           
  1517                           ; BSR set to: 0
  1518  0027A4  C060  F06A         	movff	___xxtofl@val,___xxtofl@arg
  1519  0027A8  C061  F06B         	movff	___xxtofl@val+1,___xxtofl@arg+1
  1520  0027AC  C062  F06C         	movff	___xxtofl@val+2,___xxtofl@arg+2
  1521  0027B0  C063  F06D         	movff	___xxtofl@val+3,___xxtofl@arg+3
  1522  0027B4                     l1103:
  1523                           
  1524                           ; BSR set to: 0
  1525                           
  1526                           ; BSR set to: 0
  1527  0027B4  5160               	movf	___xxtofl@val& (0+255),w,b
  1528  0027B6  1161               	iorwf	(___xxtofl@val+1)& (0+255),w,b
  1529  0027B8  1162               	iorwf	(___xxtofl@val+2)& (0+255),w,b
  1530  0027BA  1163               	iorwf	(___xxtofl@val+3)& (0+255),w,b
  1531  0027BC  A4D8               	btfss	status,2,c
  1532  0027BE  D009               	goto	l1104
  1533                           
  1534                           ; BSR set to: 0
  1535  0027C0  0E00               	movlw	0
  1536  0027C2  6F60               	movwf	?___xxtofl& (0+255),b
  1537  0027C4  0E00               	movlw	0
  1538  0027C6  6F61               	movwf	(?___xxtofl+1)& (0+255),b
  1539  0027C8  0E00               	movlw	0
  1540  0027CA  6F62               	movwf	(?___xxtofl+2)& (0+255),b
  1541  0027CC  0E00               	movlw	0
  1542  0027CE  6F63               	movwf	(?___xxtofl+3)& (0+255),b
  1543                           
  1544                           ; BSR set to: 0
  1545  0027D0  0012               	return	
  1546  0027D2                     l1104:
  1547                           
  1548                           ; BSR set to: 0
  1549                           
  1550                           ; BSR set to: 0
  1551  0027D2  0E96               	movlw	150
  1552  0027D4  6F69               	movwf	___xxtofl@exp& (0+255),b
  1553  0027D6  D006               	goto	l1106
  1554  0027D8                     
  1555                           ; BSR set to: 0
  1556                           
  1557                           ; BSR set to: 0
  1558  0027D8  2B69               	incf	___xxtofl@exp& (0+255),f,b
  1559  0027DA  90D8               	bcf	status,0,c
  1560  0027DC  336D               	rrcf	(___xxtofl@arg+3)& (0+255),f,b
  1561  0027DE  336C               	rrcf	(___xxtofl@arg+2)& (0+255),f,b
  1562  0027E0  336B               	rrcf	(___xxtofl@arg+1)& (0+255),f,b
  1563  0027E2  336A               	rrcf	___xxtofl@arg& (0+255),f,b
  1564  0027E4                     l1106:
  1565                           
  1566                           ; BSR set to: 0
  1567                           
  1568                           ; BSR set to: 0
  1569  0027E4  0E00               	movlw	0
  1570  0027E6  156A               	andwf	___xxtofl@arg& (0+255),w,b
  1571  0027E8  6F64               	movwf	??___xxtofl& (0+255),b
  1572  0027EA  0E00               	movlw	0
  1573  0027EC  156B               	andwf	(___xxtofl@arg+1)& (0+255),w,b
  1574  0027EE  6F65               	movwf	(??___xxtofl+1)& (0+255),b
  1575  0027F0  0E00               	movlw	0
  1576  0027F2  156C               	andwf	(___xxtofl@arg+2)& (0+255),w,b
  1577  0027F4  6F66               	movwf	(??___xxtofl+2)& (0+255),b
  1578  0027F6  0EFE               	movlw	254
  1579  0027F8  156D               	andwf	(___xxtofl@arg+3)& (0+255),w,b
  1580  0027FA  6F67               	movwf	(??___xxtofl+3)& (0+255),b
  1581  0027FC  5164               	movf	??___xxtofl& (0+255),w,b
  1582  0027FE  1165               	iorwf	(??___xxtofl+1)& (0+255),w,b
  1583  002800  1166               	iorwf	(??___xxtofl+2)& (0+255),w,b
  1584  002802  1167               	iorwf	(??___xxtofl+3)& (0+255),w,b
  1585  002804  B4D8               	btfsc	status,2,c
  1586  002806  D00D               	goto	l1109
  1587  002808  D7E7               	goto	l1107
  1588  00280A                     
  1589                           ; BSR set to: 0
  1590                           
  1591                           ; BSR set to: 0
  1592  00280A  2B69               	incf	___xxtofl@exp& (0+255),f,b
  1593                           
  1594                           ; BSR set to: 0
  1595  00280C  0E01               	movlw	1
  1596  00280E  276A               	addwf	___xxtofl@arg& (0+255),f,b
  1597  002810  0E00               	movlw	0
  1598  002812  236B               	addwfc	(___xxtofl@arg+1)& (0+255),f,b
  1599  002814  236C               	addwfc	(___xxtofl@arg+2)& (0+255),f,b
  1600  002816  236D               	addwfc	(___xxtofl@arg+3)& (0+255),f,b
  1601                           
  1602                           ; BSR set to: 0
  1603  002818  90D8               	bcf	status,0,c
  1604  00281A  336D               	rrcf	(___xxtofl@arg+3)& (0+255),f,b
  1605  00281C  336C               	rrcf	(___xxtofl@arg+2)& (0+255),f,b
  1606  00281E  336B               	rrcf	(___xxtofl@arg+1)& (0+255),f,b
  1607  002820  336A               	rrcf	___xxtofl@arg& (0+255),f,b
  1608  002822                     l1109:
  1609                           
  1610                           ; BSR set to: 0
  1611  002822  0E00               	movlw	0
  1612  002824  156A               	andwf	___xxtofl@arg& (0+255),w,b
  1613  002826  6F64               	movwf	??___xxtofl& (0+255),b
  1614  002828  0E00               	movlw	0
  1615  00282A  156B               	andwf	(___xxtofl@arg+1)& (0+255),w,b
  1616  00282C  6F65               	movwf	(??___xxtofl+1)& (0+255),b
  1617  00282E  0E00               	movlw	0
  1618  002830  156C               	andwf	(___xxtofl@arg+2)& (0+255),w,b
  1619  002832  6F66               	movwf	(??___xxtofl+2)& (0+255),b
  1620  002834  0EFF               	movlw	255
  1621  002836  156D               	andwf	(___xxtofl@arg+3)& (0+255),w,b
  1622  002838  6F67               	movwf	(??___xxtofl+3)& (0+255),b
  1623  00283A  5164               	movf	??___xxtofl& (0+255),w,b
  1624  00283C  1165               	iorwf	(??___xxtofl+1)& (0+255),w,b
  1625  00283E  1166               	iorwf	(??___xxtofl+2)& (0+255),w,b
  1626  002840  1167               	iorwf	(??___xxtofl+3)& (0+255),w,b
  1627  002842  B4D8               	btfsc	status,2,c
  1628  002844  D007               	goto	l1112
  1629  002846  D7E1               	goto	l1110
  1630  002848                     
  1631                           ; BSR set to: 0
  1632                           
  1633                           ; BSR set to: 0
  1634  002848  0769               	decf	___xxtofl@exp& (0+255),f,b
  1635  00284A  90D8               	bcf	status,0,c
  1636  00284C  376A               	rlcf	___xxtofl@arg& (0+255),f,b
  1637  00284E  376B               	rlcf	(___xxtofl@arg+1)& (0+255),f,b
  1638  002850  376C               	rlcf	(___xxtofl@arg+2)& (0+255),f,b
  1639  002852  376D               	rlcf	(___xxtofl@arg+3)& (0+255),f,b
  1640  002854                     l1112:
  1641                           
  1642                           ; BSR set to: 0
  1643                           
  1644                           ; BSR set to: 0
  1645  002854  BF6C               	btfsc	(___xxtofl@arg+2)& (0+255),7,b
  1646  002856  D003               	goto	u3130
  1647                           
  1648                           ; BSR set to: 0
  1649  002858  0E02               	movlw	2
  1650  00285A  6169               	cpfslt	___xxtofl@exp& (0+255),b
  1651  00285C  D7F5               	goto	l1113
  1652  00285E                     u3130:
  1653                           
  1654                           ; BSR set to: 0
  1655                           
  1656                           ; BSR set to: 0
  1657  00285E  B169               	btfsc	___xxtofl@exp& (0+255),0,b
  1658  002860  D008               	goto	l1117
  1659                           
  1660                           ; BSR set to: 0
  1661  002862  0EFF               	movlw	255
  1662  002864  176A               	andwf	___xxtofl@arg& (0+255),f,b
  1663  002866  0EFF               	movlw	255
  1664  002868  176B               	andwf	(___xxtofl@arg+1)& (0+255),f,b
  1665  00286A  0E7F               	movlw	127
  1666  00286C  176C               	andwf	(___xxtofl@arg+2)& (0+255),f,b
  1667  00286E  0EFF               	movlw	255
  1668  002870  176D               	andwf	(___xxtofl@arg+3)& (0+255),f,b
  1669  002872                     l1117:
  1670                           
  1671                           ; BSR set to: 0
  1672  002872  90D8               	bcf	status,0,c
  1673  002874  3369               	rrcf	___xxtofl@exp& (0+255),f,b
  1674  002876  C069  F064         	movff	___xxtofl@exp,??___xxtofl
  1675  00287A  6B65               	clrf	(??___xxtofl+1)& (0+255),b
  1676  00287C  6B66               	clrf	(??___xxtofl+2)& (0+255),b
  1677  00287E  6B67               	clrf	(??___xxtofl+3)& (0+255),b
  1678  002880  C064  F067         	movff	??___xxtofl,??___xxtofl+3
  1679  002884  6B66               	clrf	(??___xxtofl+2)& (0+255),b
  1680  002886  6B65               	clrf	(??___xxtofl+1)& (0+255),b
  1681  002888  6B64               	clrf	??___xxtofl& (0+255),b
  1682  00288A  5164               	movf	??___xxtofl& (0+255),w,b
  1683  00288C  136A               	iorwf	___xxtofl@arg& (0+255),f,b
  1684  00288E  5165               	movf	(??___xxtofl+1)& (0+255),w,b
  1685  002890  136B               	iorwf	(___xxtofl@arg+1)& (0+255),f,b
  1686  002892  5166               	movf	(??___xxtofl+2)& (0+255),w,b
  1687  002894  136C               	iorwf	(___xxtofl@arg+2)& (0+255),f,b
  1688  002896  5167               	movf	(??___xxtofl+3)& (0+255),w,b
  1689  002898  136D               	iorwf	(___xxtofl@arg+3)& (0+255),f,b
  1690                           
  1691                           ; BSR set to: 0
  1692  00289A  5168               	movf	___xxtofl@sign& (0+255),w,b
  1693  00289C  A4D8               	btfss	status,2,c
  1694                           
  1695                           ; BSR set to: 0
  1696  00289E  AF63               	btfss	(___xxtofl@val+3)& (0+255),7,b
  1697  0028A0  D001               	goto	l1118
  1698                           
  1699                           ; BSR set to: 0
  1700  0028A2  8F6D               	bsf	(___xxtofl@arg+3)& (0+255),7,b
  1701  0028A4                     l1118:
  1702                           
  1703                           ; BSR set to: 0
  1704                           
  1705                           ; BSR set to: 0
  1706  0028A4  C06A  F060         	movff	___xxtofl@arg,?___xxtofl
  1707  0028A8  C06B  F061         	movff	___xxtofl@arg+1,?___xxtofl+1
  1708  0028AC  C06C  F062         	movff	___xxtofl@arg+2,?___xxtofl+2
  1709  0028B0  C06D  F063         	movff	___xxtofl@arg+3,?___xxtofl+3
  1710  0028B4  0012               	return	
  1711  0028B6                     __end_of___xxtofl:
  1712                           	opt stack 0
  1713                           tblptru	equ	0xFF8
  1714                           tblptrh	equ	0xFF7
  1715                           tblptrl	equ	0xFF6
  1716                           tablat	equ	0xFF5
  1717                           prodh	equ	0xFF4
  1718                           prodl	equ	0xFF3
  1719                           intcon	equ	0xFF2
  1720                           postinc0	equ	0xFEE
  1721                           wreg	equ	0xFE8
  1722                           postdec1	equ	0xFE5
  1723                           fsr1l	equ	0xFE1
  1724                           postinc2	equ	0xFDE
  1725                           postdec2	equ	0xFDD
  1726                           fsr2h	equ	0xFDA
  1727                           fsr2l	equ	0xFD9
  1728                           status	equ	0xFD8
  1729                           
  1730 ;; *************** function ___lwdiv *****************
  1731 ;; Defined at:
  1732 ;;		line 8 in file "C:\Program Files (x86)\Microchip\xc8\v1.45\sources\common\lwdiv.c"
  1733 ;; Parameters:    Size  Location     Type
  1734 ;;  dividend        2    0[BANK0 ] unsigned int 
  1735 ;;  divisor         2    2[BANK0 ] unsigned int 
  1736 ;; Auto vars:     Size  Location     Type
  1737 ;;  quotient        2    4[BANK0 ] unsigned int 
  1738 ;;  counter         1    6[BANK0 ] unsigned char 
  1739 ;; Return value:  Size  Location     Type
  1740 ;;                  2    0[BANK0 ] unsigned int 
  1741 ;; Registers used:
  1742 ;;		wreg, status,2, status,0
  1743 ;; Tracked objects:
  1744 ;;		On entry : 0/0
  1745 ;;		On exit  : 0/0
  1746 ;;		Unchanged: 0/0
  1747 ;; Data sizes:     COMRAM   BANK0   BANK1   BANK2   BANK3   BANK4   BANK5   BANK6   BANK7   BANK8   BANK9  BANK10  BANK1
      +1  BANK12  BANK13  BANK14  BANK15
  1748 ;;      Params:         0       4       0       0       0       0       0       0       0       0       0       0       
      +0       0       0       0       0
  1749 ;;      Locals:         0       3       0       0       0       0       0       0       0       0       0       0       
      +0       0       0       0       0
  1750 ;;      Temps:          0       0       0       0       0       0       0       0       0       0       0       0       
      +0       0       0       0       0
  1751 ;;      Totals:         0       7       0       0       0       0       0       0       0       0       0       0       
      +0       0       0       0       0
  1752 ;;Total ram usage:        7 bytes
  1753 ;; Hardware stack levels used:    1
  1754 ;; Hardware stack levels required when called:    2
  1755 ;; This function calls:
  1756 ;;		Nothing
  1757 ;; This function is called by:
  1758 ;;		_main
  1759 ;; This function uses a non-reentrant model
  1760 ;;
  1761                           
  1762                           	psect	text2
  1763  002CDA                     __ptext2:
  1764                           	opt stack 0
  1765  002CDA                     ___lwdiv:
  1766                           	opt stack 28
  1767                           
  1768                           ; BSR set to: 0
  1769                           ;incstack = 0
  1770  002CDA  0E00               	movlw	0
  1771  002CDC  0100               	movlb	0	; () banked
  1772  002CDE  6F65               	movwf	(___lwdiv@quotient+1)& (0+255),b
  1773  002CE0  0E00               	movlw	0
  1774  002CE2  6F64               	movwf	___lwdiv@quotient& (0+255),b
  1775                           
  1776                           ; BSR set to: 0
  1777  002CE4  5162               	movf	___lwdiv@divisor& (0+255),w,b
  1778  002CE6  1163               	iorwf	(___lwdiv@divisor+1)& (0+255),w,b
  1779  002CE8  B4D8               	btfsc	status,2,c
  1780  002CEA  D01C               	goto	l963
  1781                           
  1782                           ; BSR set to: 0
  1783  002CEC  0E01               	movlw	1
  1784  002CEE  6F66               	movwf	___lwdiv@counter& (0+255),b
  1785  002CF0  D004               	goto	l958
  1786  002CF2                     
  1787                           ; BSR set to: 0
  1788                           
  1789                           ; BSR set to: 0
  1790  002CF2  90D8               	bcf	status,0,c
  1791  002CF4  3762               	rlcf	___lwdiv@divisor& (0+255),f,b
  1792  002CF6  3763               	rlcf	(___lwdiv@divisor+1)& (0+255),f,b
  1793  002CF8  2B66               	incf	___lwdiv@counter& (0+255),f,b
  1794  002CFA                     l958:
  1795                           
  1796                           ; BSR set to: 0
  1797                           
  1798                           ; BSR set to: 0
  1799  002CFA  AF63               	btfss	(___lwdiv@divisor+1)& (0+255),7,b
  1800  002CFC  D7FA               	goto	l959
  1801  002CFE                     u3050:
  1802                           
  1803                           ; BSR set to: 0
  1804                           
  1805                           ; BSR set to: 0
  1806                           
  1807                           ; BSR set to: 0
  1808  002CFE  90D8               	bcf	status,0,c
  1809  002D00  3764               	rlcf	___lwdiv@quotient& (0+255),f,b
  1810  002D02  3765               	rlcf	(___lwdiv@quotient+1)& (0+255),f,b
  1811                           
  1812                           ; BSR set to: 0
  1813  002D04  5162               	movf	___lwdiv@divisor& (0+255),w,b
  1814  002D06  5D60               	subwf	___lwdiv@dividend& (0+255),w,b
  1815  002D08  5163               	movf	(___lwdiv@divisor+1)& (0+255),w,b
  1816  002D0A  5961               	subwfb	(___lwdiv@dividend+1)& (0+255),w,b
  1817  002D0C  A0D8               	btfss	status,0,c
  1818  002D0E  D005               	goto	l962
  1819                           
  1820                           ; BSR set to: 0
  1821  002D10  5162               	movf	___lwdiv@divisor& (0+255),w,b
  1822  002D12  5F60               	subwf	___lwdiv@dividend& (0+255),f,b
  1823  002D14  5163               	movf	(___lwdiv@divisor+1)& (0+255),w,b
  1824  002D16  5B61               	subwfb	(___lwdiv@dividend+1)& (0+255),f,b
  1825                           
  1826                           ; BSR set to: 0
  1827  002D18  8164               	bsf	___lwdiv@quotient& (0+255),0,b
  1828  002D1A                     l962:
  1829                           
  1830                           ; BSR set to: 0
  1831                           
  1832                           ; BSR set to: 0
  1833  002D1A  90D8               	bcf	status,0,c
  1834  002D1C  3363               	rrcf	(___lwdiv@divisor+1)& (0+255),f,b
  1835  002D1E  3362               	rrcf	___lwdiv@divisor& (0+255),f,b
  1836                           
  1837                           ; BSR set to: 0
  1838  002D20  2F66               	decfsz	___lwdiv@counter& (0+255),f,b
  1839  002D22  D7ED               	goto	u3050
  1840  002D24                     l963:
  1841                           
  1842                           ; BSR set to: 0
  1843                           
  1844                           ; BSR set to: 0
  1845  002D24  C064  F060         	movff	___lwdiv@quotient,?___lwdiv
  1846  002D28  C065  F061         	movff	___lwdiv@quotient+1,?___lwdiv+1
  1847                           
  1848                           ; BSR set to: 0
  1849  002D2C  0012               	return		;funcret
  1850  002D2E                     __end_of___lwdiv:
  1851                           	opt stack 0
  1852                           tblptru	equ	0xFF8
  1853                           tblptrh	equ	0xFF7
  1854                           tblptrl	equ	0xFF6
  1855                           tablat	equ	0xFF5
  1856                           prodh	equ	0xFF4
  1857                           prodl	equ	0xFF3
  1858                           intcon	equ	0xFF2
  1859                           postinc0	equ	0xFEE
  1860                           wreg	equ	0xFE8
  1861                           postdec1	equ	0xFE5
  1862                           fsr1l	equ	0xFE1
  1863                           postinc2	equ	0xFDE
  1864                           postdec2	equ	0xFDD
  1865                           fsr2h	equ	0xFDA
  1866                           fsr2l	equ	0xFD9
  1867                           status	equ	0xFD8
  1868                           
  1869 ;; *************** function ___fltol *****************
  1870 ;; Defined at:
  1871 ;;		line 43 in file "C:\Program Files (x86)\Microchip\xc8\v1.45\sources\common\fltol.c"
  1872 ;; Parameters:    Size  Location     Type
  1873 ;;  f1              4   39[BANK0 ] unsigned int 
  1874 ;; Auto vars:     Size  Location     Type
  1875 ;;  exp1            1   48[BANK0 ] unsigned char 
  1876 ;;  sign1           1   47[BANK0 ] unsigned char 
  1877 ;; Return value:  Size  Location     Type
  1878 ;;                  4   39[BANK0 ] long 
  1879 ;; Registers used:
  1880 ;;		wreg, status,2, status,0
  1881 ;; Tracked objects:
  1882 ;;		On entry : 0/0
  1883 ;;		On exit  : 0/0
  1884 ;;		Unchanged: 0/0
  1885 ;; Data sizes:     COMRAM   BANK0   BANK1   BANK2   BANK3   BANK4   BANK5   BANK6   BANK7   BANK8   BANK9  BANK10  BANK1
      +1  BANK12  BANK13  BANK14  BANK15
  1886 ;;      Params:         0       4       0       0       0       0       0       0       0       0       0       0       
      +0       0       0       0       0
  1887 ;;      Locals:         0       2       0       0       0       0       0       0       0       0       0       0       
      +0       0       0       0       0
  1888 ;;      Temps:          0       4       0       0       0       0       0       0       0       0       0       0       
      +0       0       0       0       0
  1889 ;;      Totals:         0      10       0       0       0       0       0       0       0       0       0       0       
      +0       0       0       0       0
  1890 ;;Total ram usage:       10 bytes
  1891 ;; Hardware stack levels used:    1
  1892 ;; Hardware stack levels required when called:    2
  1893 ;; This function calls:
  1894 ;;		Nothing
  1895 ;; This function is called by:
  1896 ;;		_main
  1897 ;;		_controle_vb
  1898 ;; This function uses a non-reentrant model
  1899 ;;
  1900                           
  1901                           	psect	text3
  1902  002B28                     __ptext3:
  1903                           	opt stack 0
  1904  002B28                     ___fltol:
  1905                           	opt stack 28
  1906                           
  1907                           ; BSR set to: 0
  1908                           ;incstack = 0
  1909  002B28  0100               	movlb	0	; () banked
  1910  002B2A  3589               	rlcf	(___fltol@f1+2)& (0+255),w,b
  1911  002B2C  358A               	rlcf	(___fltol@f1+3)& (0+255),w,b
  1912  002B2E  6F90               	movwf	___fltol@exp1& (0+255),b
  1913  002B30  5190               	movf	___fltol@exp1& (0+255),w,b
  1914  002B32  A4D8               	btfss	status,2,c
  1915  002B34  D009               	goto	l784
  1916                           
  1917                           ; BSR set to: 0
  1918  002B36  0E00               	movlw	0
  1919  002B38  6F87               	movwf	?___fltol& (0+255),b
  1920  002B3A  0E00               	movlw	0
  1921  002B3C  6F88               	movwf	(?___fltol+1)& (0+255),b
  1922  002B3E  0E00               	movlw	0
  1923  002B40  6F89               	movwf	(?___fltol+2)& (0+255),b
  1924  002B42  0E00               	movlw	0
  1925  002B44  6F8A               	movwf	(?___fltol+3)& (0+255),b
  1926                           
  1927                           ; BSR set to: 0
  1928  002B46  0012               	return	
  1929  002B48                     l784:
  1930                           
  1931                           ; BSR set to: 0
  1932                           
  1933                           ; BSR set to: 0
  1934  002B48  C087  F08B         	movff	___fltol@f1,??___fltol
  1935  002B4C  C088  F08C         	movff	___fltol@f1+1,??___fltol+1
  1936  002B50  C089  F08D         	movff	___fltol@f1+2,??___fltol+2
  1937  002B54  C08A  F08E         	movff	___fltol@f1+3,??___fltol+3
  1938  002B58  0E20               	movlw	32
  1939  002B5A  D005               	goto	u2980
  1940  002B5C                     u2985:
  1941  002B5C  90D8               	bcf	status,0,c
  1942  002B5E  338E               	rrcf	(??___fltol+3)& (0+255),f,b
  1943  002B60  338D               	rrcf	(??___fltol+2)& (0+255),f,b
  1944  002B62  338C               	rrcf	(??___fltol+1)& (0+255),f,b
  1945  002B64  338B               	rrcf	??___fltol& (0+255),f,b
  1946  002B66                     u2980:
  1947  002B66  2EE8               	decfsz	wreg,f,c
  1948  002B68  D7F9               	goto	u2985
  1949  002B6A  518B               	movf	??___fltol& (0+255),w,b
  1950  002B6C  6F8F               	movwf	___fltol@sign1& (0+255),b
  1951                           
  1952                           ; BSR set to: 0
  1953  002B6E  8F89               	bsf	(___fltol@f1+2)& (0+255),7,b
  1954                           
  1955                           ; BSR set to: 0
  1956  002B70  0EFF               	movlw	255
  1957  002B72  1787               	andwf	___fltol@f1& (0+255),f,b
  1958  002B74  0EFF               	movlw	255
  1959  002B76  1788               	andwf	(___fltol@f1+1)& (0+255),f,b
  1960  002B78  0EFF               	movlw	255
  1961  002B7A  1789               	andwf	(___fltol@f1+2)& (0+255),f,b
  1962  002B7C  0E00               	movlw	0
  1963  002B7E  178A               	andwf	(___fltol@f1+3)& (0+255),f,b
  1964                           
  1965                           ; BSR set to: 0
  1966  002B80  0E96               	movlw	150
  1967  002B82  5F90               	subwf	___fltol@exp1& (0+255),f,b
  1968                           
  1969                           ; BSR set to: 0
  1970  002B84  AF90               	btfss	___fltol@exp1& (0+255),7,b
  1971  002B86  D016               	goto	l786
  1972                           
  1973                           ; BSR set to: 0
  1974  002B88  5190               	movf	___fltol@exp1& (0+255),w,b
  1975  002B8A  0A80               	xorlw	128
  1976  002B8C  0F97               	addlw	151
  1977  002B8E  B0D8               	btfsc	status,0,c
  1978  002B90  D009               	goto	l787
  1979                           
  1980                           ; BSR set to: 0
  1981  002B92  0E00               	movlw	0
  1982  002B94  6F87               	movwf	?___fltol& (0+255),b
  1983  002B96  0E00               	movlw	0
  1984  002B98  6F88               	movwf	(?___fltol+1)& (0+255),b
  1985  002B9A  0E00               	movlw	0
  1986  002B9C  6F89               	movwf	(?___fltol+2)& (0+255),b
  1987  002B9E  0E00               	movlw	0
  1988  002BA0  6F8A               	movwf	(?___fltol+3)& (0+255),b
  1989                           
  1990                           ; BSR set to: 0
  1991  002BA2  0012               	return	
  1992  002BA4                     l787:
  1993                           
  1994                           ; BSR set to: 0
  1995                           
  1996                           ; BSR set to: 0
  1997                           
  1998                           ; BSR set to: 0
  1999  002BA4  90D8               	bcf	status,0,c
  2000  002BA6  338A               	rrcf	(___fltol@f1+3)& (0+255),f,b
  2001  002BA8  3389               	rrcf	(___fltol@f1+2)& (0+255),f,b
  2002  002BAA  3388               	rrcf	(___fltol@f1+1)& (0+255),f,b
  2003  002BAC  3387               	rrcf	___fltol@f1& (0+255),f,b
  2004                           
  2005                           ; BSR set to: 0
  2006  002BAE  3F90               	incfsz	___fltol@exp1& (0+255),f,b
  2007  002BB0  D7F9               	goto	l787
  2008                           
  2009                           ; BSR set to: 0
  2010  002BB2  D015               	goto	u3020
  2011  002BB4                     l786:
  2012                           
  2013                           ; BSR set to: 0
  2014                           
  2015                           ; BSR set to: 0
  2016  002BB4  0E1F               	movlw	31
  2017  002BB6  6590               	cpfsgt	___fltol@exp1& (0+255),b
  2018  002BB8  D00F               	goto	l792
  2019                           
  2020                           ; BSR set to: 0
  2021  002BBA  0E00               	movlw	0
  2022  002BBC  6F87               	movwf	?___fltol& (0+255),b
  2023  002BBE  0E00               	movlw	0
  2024  002BC0  6F88               	movwf	(?___fltol+1)& (0+255),b
  2025  002BC2  0E00               	movlw	0
  2026  002BC4  6F89               	movwf	(?___fltol+2)& (0+255),b
  2027  002BC6  0E00               	movlw	0
  2028  002BC8  6F8A               	movwf	(?___fltol+3)& (0+255),b
  2029                           
  2030                           ; BSR set to: 0
  2031  002BCA  0012               	return	
  2032  002BCC                     
  2033                           ; BSR set to: 0
  2034                           
  2035                           ; BSR set to: 0
  2036  002BCC  90D8               	bcf	status,0,c
  2037  002BCE  3787               	rlcf	___fltol@f1& (0+255),f,b
  2038  002BD0  3788               	rlcf	(___fltol@f1+1)& (0+255),f,b
  2039  002BD2  3789               	rlcf	(___fltol@f1+2)& (0+255),f,b
  2040  002BD4  378A               	rlcf	(___fltol@f1+3)& (0+255),f,b
  2041  002BD6  0790               	decf	___fltol@exp1& (0+255),f,b
  2042  002BD8                     l792:
  2043                           
  2044                           ; BSR set to: 0
  2045                           
  2046                           ; BSR set to: 0
  2047  002BD8  5190               	movf	___fltol@exp1& (0+255),w,b
  2048  002BDA  A4D8               	btfss	status,2,c
  2049  002BDC  D7F7               	goto	l793
  2050  002BDE                     u3020:
  2051                           
  2052                           ; BSR set to: 0
  2053                           
  2054                           ; BSR set to: 0
  2055                           
  2056                           ; BSR set to: 0
  2057  002BDE  518F               	movf	___fltol@sign1& (0+255),w,b
  2058  002BE0  B4D8               	btfsc	status,2,c
  2059  002BE2  D008               	goto	l795
  2060                           
  2061                           ; BSR set to: 0
  2062  002BE4  1F8A               	comf	(___fltol@f1+3)& (0+255),f,b
  2063  002BE6  1F89               	comf	(___fltol@f1+2)& (0+255),f,b
  2064  002BE8  1F88               	comf	(___fltol@f1+1)& (0+255),f,b
  2065  002BEA  6D87               	negf	___fltol@f1& (0+255),b
  2066  002BEC  0E00               	movlw	0
  2067  002BEE  2388               	addwfc	(___fltol@f1+1)& (0+255),f,b
  2068  002BF0  2389               	addwfc	(___fltol@f1+2)& (0+255),f,b
  2069  002BF2  238A               	addwfc	(___fltol@f1+3)& (0+255),f,b
  2070  002BF4                     l795:
  2071                           
  2072                           ; BSR set to: 0
  2073                           
  2074                           ; BSR set to: 0
  2075  002BF4  C087  F087         	movff	___fltol@f1,?___fltol
  2076  002BF8  C088  F088         	movff	___fltol@f1+1,?___fltol+1
  2077  002BFC  C089  F089         	movff	___fltol@f1+2,?___fltol+2
  2078  002C00  C08A  F08A         	movff	___fltol@f1+3,?___fltol+3
  2079  002C04  0012               	return	
  2080  002C06                     __end_of___fltol:
  2081                           	opt stack 0
  2082                           tblptru	equ	0xFF8
  2083                           tblptrh	equ	0xFF7
  2084                           tblptrl	equ	0xFF6
  2085                           tablat	equ	0xFF5
  2086                           prodh	equ	0xFF4
  2087                           prodl	equ	0xFF3
  2088                           intcon	equ	0xFF2
  2089                           postinc0	equ	0xFEE
  2090                           wreg	equ	0xFE8
  2091                           postdec1	equ	0xFE5
  2092                           fsr1l	equ	0xFE1
  2093                           postinc2	equ	0xFDE
  2094                           postdec2	equ	0xFDD
  2095                           fsr2h	equ	0xFDA
  2096                           fsr2l	equ	0xFD9
  2097                           status	equ	0xFD8
  2098                           
  2099 ;; *************** function ___fldiv *****************
  2100 ;; Defined at:
  2101 ;;		line 11 in file "C:\Program Files (x86)\Microchip\xc8\v1.45\sources\common\sprcdiv.c"
  2102 ;; Parameters:    Size  Location     Type
  2103 ;;  b               4   39[BANK0 ] long 
  2104 ;;  a               4   43[BANK0 ] long 
  2105 ;; Auto vars:     Size  Location     Type
  2106 ;;  grs             4   58[BANK0 ] unsigned long 
  2107 ;;  rem             4   52[BANK0 ] unsigned long 
  2108 ;;  new_exp         2   56[BANK0 ] int 
  2109 ;;  aexp            1   63[BANK0 ] unsigned char 
  2110 ;;  bexp            1   62[BANK0 ] unsigned char 
  2111 ;;  sign            1   51[BANK0 ] unsigned char 
  2112 ;; Return value:  Size  Location     Type
  2113 ;;                  4   39[BANK0 ] unsigned char 
  2114 ;; Registers used:
  2115 ;;		wreg, status,2, status,0
  2116 ;; Tracked objects:
  2117 ;;		On entry : 0/0
  2118 ;;		On exit  : 0/0
  2119 ;;		Unchanged: 0/0
  2120 ;; Data sizes:     COMRAM   BANK0   BANK1   BANK2   BANK3   BANK4   BANK5   BANK6   BANK7   BANK8   BANK9  BANK10  BANK1
      +1  BANK12  BANK13  BANK14  BANK15
  2121 ;;      Params:         0       8       0       0       0       0       0       0       0       0       0       0       
      +0       0       0       0       0
  2122 ;;      Locals:         0      13       0       0       0       0       0       0       0       0       0       0       
      +0       0       0       0       0
  2123 ;;      Temps:          0       4       0       0       0       0       0       0       0       0       0       0       
      +0       0       0       0       0
  2124 ;;      Totals:         0      25       0       0       0       0       0       0       0       0       0       0       
      +0       0       0       0       0
  2125 ;;Total ram usage:       25 bytes
  2126 ;; Hardware stack levels used:    1
  2127 ;; Hardware stack levels required when called:    2
  2128 ;; This function calls:
  2129 ;;		Nothing
  2130 ;; This function is called by:
  2131 ;;		_main
  2132 ;; This function uses a non-reentrant model
  2133 ;;
  2134                           
  2135                           	psect	text4
  2136  001DB4                     __ptext4:
  2137                           	opt stack 0
  2138  001DB4                     ___fldiv:
  2139                           	opt stack 28
  2140                           
  2141                           ; BSR set to: 0
  2142                           ;incstack = 0
  2143  001DB4  0100               	movlb	0	; () banked
  2144  001DB6  518A               	movf	(___fldiv@b+3)& (0+255),w,b
  2145  001DB8  0B80               	andlw	128
  2146  001DBA  6F93               	movwf	___fldiv@sign& (0+255),b
  2147  001DBC  518A               	movf	(___fldiv@b+3)& (0+255),w,b
  2148  001DBE  258A               	addwf	(___fldiv@b+3)& (0+255),w,b
  2149  001DC0  6F9E               	movwf	___fldiv@bexp& (0+255),b
  2150                           
  2151                           ; BSR set to: 0
  2152  001DC2  BF89               	btfsc	(___fldiv@b+2)& (0+255),7,b
  2153                           
  2154                           ; BSR set to: 0
  2155  001DC4  819E               	bsf	___fldiv@bexp& (0+255),0,b
  2156                           
  2157                           ; BSR set to: 0
  2158                           
  2159                           ; BSR set to: 0
  2160  001DC6  519E               	movf	___fldiv@bexp& (0+255),w,b
  2161  001DC8  B4D8               	btfsc	status,2,c
  2162  001DCA  D00D               	goto	l1040
  2163                           
  2164                           ; BSR set to: 0
  2165  001DCC  299E               	incf	___fldiv@bexp& (0+255),w,b
  2166  001DCE  A4D8               	btfss	status,2,c
  2167  001DD0  D008               	goto	l1041
  2168                           
  2169                           ; BSR set to: 0
  2170  001DD2  0E00               	movlw	0
  2171  001DD4  6F87               	movwf	___fldiv@b& (0+255),b
  2172  001DD6  0E00               	movlw	0
  2173  001DD8  6F88               	movwf	(___fldiv@b+1)& (0+255),b
  2174  001DDA  0E00               	movlw	0
  2175  001DDC  6F89               	movwf	(___fldiv@b+2)& (0+255),b
  2176  001DDE  0E00               	movlw	0
  2177  001DE0  6F8A               	movwf	(___fldiv@b+3)& (0+255),b
  2178  001DE2                     l1041:
  2179                           
  2180                           ; BSR set to: 0
  2181                           
  2182                           ; BSR set to: 0
  2183  001DE2  8F89               	bsf	(___fldiv@b+2)& (0+255),7,b
  2184  001DE4  D006               	goto	L1
  2185  001DE6                     l1040:
  2186                           
  2187                           ; BSR set to: 0
  2188                           
  2189                           ; BSR set to: 0
  2190  001DE6  0E00               	movlw	0
  2191  001DE8  6F87               	movwf	___fldiv@b& (0+255),b
  2192  001DEA  0E00               	movlw	0
  2193  001DEC  6F88               	movwf	(___fldiv@b+1)& (0+255),b
  2194  001DEE  0E00               	movlw	0
  2195  001DF0  6F89               	movwf	(___fldiv@b+2)& (0+255),b
  2196  001DF2                     L1:
  2197  001DF2  0E00               	movlw	0
  2198  001DF4  6F8A               	movwf	(___fldiv@b+3)& (0+255),b
  2199                           
  2200                           ; BSR set to: 0
  2201                           
  2202                           ; BSR set to: 0
  2203  001DF6  518E               	movf	(___fldiv@a+3)& (0+255),w,b
  2204  001DF8  0B80               	andlw	128
  2205  001DFA  1B93               	xorwf	___fldiv@sign& (0+255),f,b
  2206                           
  2207                           ; BSR set to: 0
  2208  001DFC  518E               	movf	(___fldiv@a+3)& (0+255),w,b
  2209  001DFE  258E               	addwf	(___fldiv@a+3)& (0+255),w,b
  2210  001E00  6F9F               	movwf	___fldiv@aexp& (0+255),b
  2211                           
  2212                           ; BSR set to: 0
  2213  001E02  BF8D               	btfsc	(___fldiv@a+2)& (0+255),7,b
  2214                           
  2215                           ; BSR set to: 0
  2216  001E04  819F               	bsf	___fldiv@aexp& (0+255),0,b
  2217                           
  2218                           ; BSR set to: 0
  2219                           
  2220                           ; BSR set to: 0
  2221  001E06  519F               	movf	___fldiv@aexp& (0+255),w,b
  2222  001E08  B4D8               	btfsc	status,2,c
  2223  001E0A  D00D               	goto	l1044
  2224                           
  2225                           ; BSR set to: 0
  2226  001E0C  299F               	incf	___fldiv@aexp& (0+255),w,b
  2227  001E0E  A4D8               	btfss	status,2,c
  2228  001E10  D008               	goto	l1045
  2229                           
  2230                           ; BSR set to: 0
  2231  001E12  0E00               	movlw	0
  2232  001E14  6F8B               	movwf	___fldiv@a& (0+255),b
  2233  001E16  0E00               	movlw	0
  2234  001E18  6F8C               	movwf	(___fldiv@a+1)& (0+255),b
  2235  001E1A  0E00               	movlw	0
  2236  001E1C  6F8D               	movwf	(___fldiv@a+2)& (0+255),b
  2237  001E1E  0E00               	movlw	0
  2238  001E20  6F8E               	movwf	(___fldiv@a+3)& (0+255),b
  2239  001E22                     l1045:
  2240                           
  2241                           ; BSR set to: 0
  2242                           
  2243                           ; BSR set to: 0
  2244  001E22  8F8D               	bsf	(___fldiv@a+2)& (0+255),7,b
  2245  001E24  D006               	goto	L2
  2246  001E26                     l1044:
  2247                           
  2248                           ; BSR set to: 0
  2249                           
  2250                           ; BSR set to: 0
  2251  001E26  0E00               	movlw	0
  2252  001E28  6F8B               	movwf	___fldiv@a& (0+255),b
  2253  001E2A  0E00               	movlw	0
  2254  001E2C  6F8C               	movwf	(___fldiv@a+1)& (0+255),b
  2255  001E2E  0E00               	movlw	0
  2256  001E30  6F8D               	movwf	(___fldiv@a+2)& (0+255),b
  2257  001E32                     L2:
  2258  001E32  0E00               	movlw	0
  2259  001E34  6F8E               	movwf	(___fldiv@a+3)& (0+255),b
  2260                           
  2261                           ; BSR set to: 0
  2262                           
  2263                           ; BSR set to: 0
  2264  001E36  518B               	movf	___fldiv@a& (0+255),w,b
  2265  001E38  118C               	iorwf	(___fldiv@a+1)& (0+255),w,b
  2266  001E3A  118D               	iorwf	(___fldiv@a+2)& (0+255),w,b
  2267  001E3C  118E               	iorwf	(___fldiv@a+3)& (0+255),w,b
  2268  001E3E  A4D8               	btfss	status,2,c
  2269  001E40  D015               	goto	l1047
  2270                           
  2271                           ; BSR set to: 0
  2272  001E42  0E00               	movlw	0
  2273  001E44  6F87               	movwf	___fldiv@b& (0+255),b
  2274  001E46  0E00               	movlw	0
  2275  001E48  6F88               	movwf	(___fldiv@b+1)& (0+255),b
  2276  001E4A  0E00               	movlw	0
  2277  001E4C  6F89               	movwf	(___fldiv@b+2)& (0+255),b
  2278  001E4E  0E00               	movlw	0
  2279  001E50  6F8A               	movwf	(___fldiv@b+3)& (0+255),b
  2280                           
  2281                           ; BSR set to: 0
  2282  001E52  0E80               	movlw	128
  2283  001E54  1389               	iorwf	(___fldiv@b+2)& (0+255),f,b
  2284  001E56  0E7F               	movlw	127
  2285  001E58  138A               	iorwf	(___fldiv@b+3)& (0+255),f,b
  2286                           
  2287                           ; BSR set to: 0
  2288  001E5A  C087  F087         	movff	___fldiv@b,?___fldiv
  2289  001E5E  C088  F088         	movff	___fldiv@b+1,?___fldiv+1
  2290  001E62  C089  F089         	movff	___fldiv@b+2,?___fldiv+2
  2291  001E66  C08A  F08A         	movff	___fldiv@b+3,?___fldiv+3
  2292                           
  2293                           ; BSR set to: 0
  2294  001E6A  0012               	return	
  2295  001E6C                     l1047:
  2296                           
  2297                           ; BSR set to: 0
  2298                           
  2299                           ; BSR set to: 0
  2300  001E6C  519E               	movf	___fldiv@bexp& (0+255),w,b
  2301  001E6E  A4D8               	btfss	status,2,c
  2302  001E70  D011               	goto	l1049
  2303                           
  2304                           ; BSR set to: 0
  2305  001E72  0E00               	movlw	0
  2306  001E74  6F87               	movwf	___fldiv@b& (0+255),b
  2307  001E76  0E00               	movlw	0
  2308  001E78  6F88               	movwf	(___fldiv@b+1)& (0+255),b
  2309  001E7A  0E00               	movlw	0
  2310  001E7C  6F89               	movwf	(___fldiv@b+2)& (0+255),b
  2311  001E7E  0E00               	movlw	0
  2312  001E80  6F8A               	movwf	(___fldiv@b+3)& (0+255),b
  2313                           
  2314                           ; BSR set to: 0
  2315  001E82  C087  F087         	movff	___fldiv@b,?___fldiv
  2316  001E86  C088  F088         	movff	___fldiv@b+1,?___fldiv+1
  2317  001E8A  C089  F089         	movff	___fldiv@b+2,?___fldiv+2
  2318  001E8E  C08A  F08A         	movff	___fldiv@b+3,?___fldiv+3
  2319                           
  2320                           ; BSR set to: 0
  2321  001E92  0012               	return	
  2322  001E94                     l1049:
  2323                           
  2324                           ; BSR set to: 0
  2325                           
  2326                           ; BSR set to: 0
  2327  001E94  519F               	movf	___fldiv@aexp& (0+255),w,b
  2328  001E96  6F8F               	movwf	??___fldiv& (0+255),b
  2329  001E98  6B90               	clrf	(??___fldiv+1)& (0+255),b
  2330  001E9A  1F8F               	comf	??___fldiv& (0+255),f,b
  2331  001E9C  1F90               	comf	(??___fldiv+1)& (0+255),f,b
  2332  001E9E  4B8F               	infsnz	??___fldiv& (0+255),f,b
  2333  001EA0  2B90               	incf	(??___fldiv+1)& (0+255),f,b
  2334  001EA2  519E               	movf	___fldiv@bexp& (0+255),w,b
  2335  001EA4  6F91               	movwf	(??___fldiv+2)& (0+255),b
  2336  001EA6  6B92               	clrf	(??___fldiv+3)& (0+255),b
  2337  001EA8  518F               	movf	??___fldiv& (0+255),w,b
  2338  001EAA  2791               	addwf	(??___fldiv+2)& (0+255),f,b
  2339  001EAC  5190               	movf	(??___fldiv+1)& (0+255),w,b
  2340  001EAE  2392               	addwfc	(??___fldiv+3)& (0+255),f,b
  2341  001EB0  0E7F               	movlw	127
  2342  001EB2  2591               	addwf	(??___fldiv+2)& (0+255),w,b
  2343  001EB4  6F98               	movwf	___fldiv@new_exp& (0+255),b
  2344  001EB6  0E00               	movlw	0
  2345  001EB8  2192               	addwfc	(??___fldiv+3)& (0+255),w,b
  2346  001EBA  6F99               	movwf	(___fldiv@new_exp+1)& (0+255),b
  2347                           
  2348                           ; BSR set to: 0
  2349  001EBC  C087  F094         	movff	___fldiv@b,___fldiv@rem
  2350  001EC0  C088  F095         	movff	___fldiv@b+1,___fldiv@rem+1
  2351  001EC4  C089  F096         	movff	___fldiv@b+2,___fldiv@rem+2
  2352  001EC8  C08A  F097         	movff	___fldiv@b+3,___fldiv@rem+3
  2353                           
  2354                           ; BSR set to: 0
  2355  001ECC  0E00               	movlw	0
  2356  001ECE  6F87               	movwf	___fldiv@b& (0+255),b
  2357  001ED0  0E00               	movlw	0
  2358  001ED2  6F88               	movwf	(___fldiv@b+1)& (0+255),b
  2359  001ED4  0E00               	movlw	0
  2360  001ED6  6F89               	movwf	(___fldiv@b+2)& (0+255),b
  2361  001ED8  0E00               	movlw	0
  2362  001EDA  6F8A               	movwf	(___fldiv@b+3)& (0+255),b
  2363                           
  2364                           ; BSR set to: 0
  2365  001EDC  0E00               	movlw	0
  2366  001EDE  6F9A               	movwf	___fldiv@grs& (0+255),b
  2367  001EE0  0E00               	movlw	0
  2368  001EE2  6F9B               	movwf	(___fldiv@grs+1)& (0+255),b
  2369  001EE4  0E00               	movlw	0
  2370  001EE6  6F9C               	movwf	(___fldiv@grs+2)& (0+255),b
  2371  001EE8  0E00               	movlw	0
  2372  001EEA  6F9D               	movwf	(___fldiv@grs+3)& (0+255),b
  2373                           
  2374                           ; BSR set to: 0
  2375  001EEC  0E00               	movlw	0
  2376  001EEE  6F9F               	movwf	___fldiv@aexp& (0+255),b
  2377  001EF0  D028               	goto	l1050
  2378  001EF2                     
  2379                           ; BSR set to: 0
  2380                           
  2381                           ; BSR set to: 0
  2382  001EF2  519F               	movf	___fldiv@aexp& (0+255),w,b
  2383  001EF4  B4D8               	btfsc	status,2,c
  2384  001EF6  D011               	goto	l1052
  2385                           
  2386                           ; BSR set to: 0
  2387  001EF8  90D8               	bcf	status,0,c
  2388  001EFA  3794               	rlcf	___fldiv@rem& (0+255),f,b
  2389  001EFC  3795               	rlcf	(___fldiv@rem+1)& (0+255),f,b
  2390  001EFE  3796               	rlcf	(___fldiv@rem+2)& (0+255),f,b
  2391  001F00  3797               	rlcf	(___fldiv@rem+3)& (0+255),f,b
  2392  001F02  90D8               	bcf	status,0,c
  2393  001F04  3787               	rlcf	___fldiv@b& (0+255),f,b
  2394  001F06  3788               	rlcf	(___fldiv@b+1)& (0+255),f,b
  2395  001F08  3789               	rlcf	(___fldiv@b+2)& (0+255),f,b
  2396  001F0A  378A               	rlcf	(___fldiv@b+3)& (0+255),f,b
  2397                           
  2398                           ; BSR set to: 0
  2399  001F0C  BF9D               	btfsc	(___fldiv@grs+3)& (0+255),7,b
  2400                           
  2401                           ; BSR set to: 0
  2402  001F0E  8187               	bsf	___fldiv@b& (0+255),0,b
  2403                           
  2404                           ; BSR set to: 0
  2405  001F10  90D8               	bcf	status,0,c
  2406  001F12  379A               	rlcf	___fldiv@grs& (0+255),f,b
  2407  001F14  379B               	rlcf	(___fldiv@grs+1)& (0+255),f,b
  2408  001F16  379C               	rlcf	(___fldiv@grs+2)& (0+255),f,b
  2409  001F18  379D               	rlcf	(___fldiv@grs+3)& (0+255),f,b
  2410  001F1A                     l1052:
  2411                           
  2412                           ; BSR set to: 0
  2413                           
  2414                           ; BSR set to: 0
  2415  001F1A  518B               	movf	___fldiv@a& (0+255),w,b
  2416  001F1C  5D94               	subwf	___fldiv@rem& (0+255),w,b
  2417  001F1E  518C               	movf	(___fldiv@a+1)& (0+255),w,b
  2418  001F20  5995               	subwfb	(___fldiv@rem+1)& (0+255),w,b
  2419  001F22  518D               	movf	(___fldiv@a+2)& (0+255),w,b
  2420  001F24  5996               	subwfb	(___fldiv@rem+2)& (0+255),w,b
  2421  001F26  518E               	movf	(___fldiv@a+3)& (0+255),w,b
  2422  001F28  5997               	subwfb	(___fldiv@rem+3)& (0+255),w,b
  2423  001F2A  A0D8               	btfss	status,0,c
  2424  001F2C  D009               	goto	l1054
  2425                           
  2426                           ; BSR set to: 0
  2427  001F2E  8D9D               	bsf	(___fldiv@grs+3)& (0+255),6,b
  2428                           
  2429                           ; BSR set to: 0
  2430  001F30  518B               	movf	___fldiv@a& (0+255),w,b
  2431  001F32  5F94               	subwf	___fldiv@rem& (0+255),f,b
  2432  001F34  518C               	movf	(___fldiv@a+1)& (0+255),w,b
  2433  001F36  5B95               	subwfb	(___fldiv@rem+1)& (0+255),f,b
  2434  001F38  518D               	movf	(___fldiv@a+2)& (0+255),w,b
  2435  001F3A  5B96               	subwfb	(___fldiv@rem+2)& (0+255),f,b
  2436  001F3C  518E               	movf	(___fldiv@a+3)& (0+255),w,b
  2437  001F3E  5B97               	subwfb	(___fldiv@rem+3)& (0+255),f,b
  2438  001F40                     l1054:
  2439                           
  2440                           ; BSR set to: 0
  2441                           
  2442                           ; BSR set to: 0
  2443  001F40  2B9F               	incf	___fldiv@aexp& (0+255),f,b
  2444  001F42                     l1050:
  2445                           
  2446                           ; BSR set to: 0
  2447  001F42  0E19               	movlw	25
  2448  001F44  659F               	cpfsgt	___fldiv@aexp& (0+255),b
  2449  001F46  D7D5               	goto	l1051
  2450                           
  2451                           ; BSR set to: 0
  2452                           
  2453                           ; BSR set to: 0
  2454  001F48  5194               	movf	___fldiv@rem& (0+255),w,b
  2455  001F4A  1195               	iorwf	(___fldiv@rem+1)& (0+255),w,b
  2456  001F4C  1196               	iorwf	(___fldiv@rem+2)& (0+255),w,b
  2457  001F4E  1197               	iorwf	(___fldiv@rem+3)& (0+255),w,b
  2458  001F50  B4D8               	btfsc	status,2,c
  2459  001F52  D011               	goto	l1057
  2460                           
  2461                           ; BSR set to: 0
  2462  001F54  819A               	bsf	___fldiv@grs& (0+255),0,b
  2463                           
  2464                           ; BSR set to: 0
  2465  001F56  D00F               	goto	l1057
  2466  001F58                     
  2467                           ; BSR set to: 0
  2468                           
  2469                           ; BSR set to: 0
  2470  001F58  90D8               	bcf	status,0,c
  2471  001F5A  3787               	rlcf	___fldiv@b& (0+255),f,b
  2472  001F5C  3788               	rlcf	(___fldiv@b+1)& (0+255),f,b
  2473  001F5E  3789               	rlcf	(___fldiv@b+2)& (0+255),f,b
  2474  001F60  378A               	rlcf	(___fldiv@b+3)& (0+255),f,b
  2475                           
  2476                           ; BSR set to: 0
  2477  001F62  BF9D               	btfsc	(___fldiv@grs+3)& (0+255),7,b
  2478                           
  2479                           ; BSR set to: 0
  2480  001F64  8187               	bsf	___fldiv@b& (0+255),0,b
  2481                           
  2482                           ; BSR set to: 0
  2483  001F66  90D8               	bcf	status,0,c
  2484  001F68  379A               	rlcf	___fldiv@grs& (0+255),f,b
  2485  001F6A  379B               	rlcf	(___fldiv@grs+1)& (0+255),f,b
  2486  001F6C  379C               	rlcf	(___fldiv@grs+2)& (0+255),f,b
  2487  001F6E  379D               	rlcf	(___fldiv@grs+3)& (0+255),f,b
  2488  001F70  0798               	decf	___fldiv@new_exp& (0+255),f,b
  2489  001F72  A0D8               	btfss	status,0,c
  2490  001F74  0799               	decf	(___fldiv@new_exp+1)& (0+255),f,b
  2491  001F76                     l1057:
  2492                           
  2493                           ; BSR set to: 0
  2494                           
  2495                           ; BSR set to: 0
  2496  001F76  AF89               	btfss	(___fldiv@b+2)& (0+255),7,b
  2497  001F78  D7EF               	goto	l1058
  2498                           
  2499                           ; BSR set to: 0
  2500                           
  2501                           ; BSR set to: 0
  2502  001F7A  0E00               	movlw	0
  2503  001F7C  6F9F               	movwf	___fldiv@aexp& (0+255),b
  2504                           
  2505                           ; BSR set to: 0
  2506  001F7E  AF9D               	btfss	(___fldiv@grs+3)& (0+255),7,b
  2507  001F80  D016               	goto	l1064
  2508                           
  2509                           ; BSR set to: 0
  2510  001F82  0EFF               	movlw	255
  2511  001F84  159A               	andwf	___fldiv@grs& (0+255),w,b
  2512  001F86  6F8F               	movwf	??___fldiv& (0+255),b
  2513  001F88  0EFF               	movlw	255
  2514  001F8A  159B               	andwf	(___fldiv@grs+1)& (0+255),w,b
  2515  001F8C  6F90               	movwf	(??___fldiv+1)& (0+255),b
  2516  001F8E  0EFF               	movlw	255
  2517  001F90  159C               	andwf	(___fldiv@grs+2)& (0+255),w,b
  2518  001F92  6F91               	movwf	(??___fldiv+2)& (0+255),b
  2519  001F94  0E7F               	movlw	127
  2520  001F96  159D               	andwf	(___fldiv@grs+3)& (0+255),w,b
  2521  001F98  6F92               	movwf	(??___fldiv+3)& (0+255),b
  2522  001F9A  518F               	movf	??___fldiv& (0+255),w,b
  2523  001F9C  1190               	iorwf	(??___fldiv+1)& (0+255),w,b
  2524  001F9E  1191               	iorwf	(??___fldiv+2)& (0+255),w,b
  2525  001FA0  1192               	iorwf	(??___fldiv+3)& (0+255),w,b
  2526  001FA2  A4D8               	btfss	status,2,c
  2527  001FA4  D002               	goto	u2910
  2528                           
  2529                           ; BSR set to: 0
  2530                           
  2531                           ; BSR set to: 0
  2532  001FA6  A187               	btfss	___fldiv@b& (0+255),0,b
  2533  001FA8  D002               	goto	l1064
  2534  001FAA                     u2910:
  2535                           
  2536                           ; BSR set to: 0
  2537  001FAA  0E01               	movlw	1
  2538  001FAC  6F9F               	movwf	___fldiv@aexp& (0+255),b
  2539  001FAE                     l1064:
  2540                           
  2541                           ; BSR set to: 0
  2542                           
  2543                           ; BSR set to: 0
  2544                           
  2545                           ; BSR set to: 0
  2546  001FAE  519F               	movf	___fldiv@aexp& (0+255),w,b
  2547  001FB0  B4D8               	btfsc	status,2,c
  2548  001FB2  D01F               	goto	l1066
  2549                           
  2550                           ; BSR set to: 0
  2551  001FB4  0E01               	movlw	1
  2552  001FB6  2787               	addwf	___fldiv@b& (0+255),f,b
  2553  001FB8  0E00               	movlw	0
  2554  001FBA  2388               	addwfc	(___fldiv@b+1)& (0+255),f,b
  2555  001FBC  2389               	addwfc	(___fldiv@b+2)& (0+255),f,b
  2556  001FBE  238A               	addwfc	(___fldiv@b+3)& (0+255),f,b
  2557                           
  2558                           ; BSR set to: 0
  2559  001FC0  A18A               	btfss	(___fldiv@b+3)& (0+255),0,b
  2560  001FC2  D017               	goto	l1066
  2561                           
  2562                           ; BSR set to: 0
  2563  001FC4  C087  F08F         	movff	___fldiv@b,??___fldiv
  2564  001FC8  C088  F090         	movff	___fldiv@b+1,??___fldiv+1
  2565  001FCC  C089  F091         	movff	___fldiv@b+2,??___fldiv+2
  2566  001FD0  C08A  F092         	movff	___fldiv@b+3,??___fldiv+3
  2567  001FD4  3592               	rlcf	(??___fldiv+3)& (0+255),w,b
  2568  001FD6  3392               	rrcf	(??___fldiv+3)& (0+255),f,b
  2569  001FD8  3391               	rrcf	(??___fldiv+2)& (0+255),f,b
  2570  001FDA  3390               	rrcf	(??___fldiv+1)& (0+255),f,b
  2571  001FDC  338F               	rrcf	??___fldiv& (0+255),f,b
  2572  001FDE  C08F  F087         	movff	??___fldiv,___fldiv@b
  2573  001FE2  C090  F088         	movff	??___fldiv+1,___fldiv@b+1
  2574  001FE6  C091  F089         	movff	??___fldiv+2,___fldiv@b+2
  2575  001FEA  C092  F08A         	movff	??___fldiv+3,___fldiv@b+3
  2576                           
  2577                           ; BSR set to: 0
  2578  001FEE  4B98               	infsnz	___fldiv@new_exp& (0+255),f,b
  2579  001FF0  2B99               	incf	(___fldiv@new_exp+1)& (0+255),f,b
  2580  001FF2                     l1066:
  2581                           
  2582                           ; BSR set to: 0
  2583                           
  2584                           ; BSR set to: 0
  2585                           
  2586                           ; BSR set to: 0
  2587  001FF2  BF99               	btfsc	(___fldiv@new_exp+1)& (0+255),7,b
  2588  001FF4  D010               	goto	l1067
  2589  001FF6  5199               	movf	(___fldiv@new_exp+1)& (0+255),w,b
  2590  001FF8  E103               	bnz	u2940
  2591  001FFA  2998               	incf	___fldiv@new_exp& (0+255),w,b
  2592  001FFC  A0D8               	btfss	status,0,c
  2593  001FFE  D00B               	goto	l1067
  2594  002000                     u2940:
  2595                           
  2596                           ; BSR set to: 0
  2597  002000  0E00               	movlw	0
  2598  002002  6F99               	movwf	(___fldiv@new_exp+1)& (0+255),b
  2599  002004  6998               	setf	___fldiv@new_exp& (0+255),b
  2600  002006  0E00               	movlw	0
  2601  002008  6F87               	movwf	___fldiv@b& (0+255),b
  2602  00200A  0E00               	movlw	0
  2603  00200C  6F88               	movwf	(___fldiv@b+1)& (0+255),b
  2604  00200E  0E00               	movlw	0
  2605  002010  6F89               	movwf	(___fldiv@b+2)& (0+255),b
  2606  002012  0E00               	movlw	0
  2607  002014  6F8A               	movwf	(___fldiv@b+3)& (0+255),b
  2608  002016                     l1067:
  2609                           
  2610                           ; BSR set to: 0
  2611                           
  2612                           ; BSR set to: 0
  2613  002016  BF99               	btfsc	(___fldiv@new_exp+1)& (0+255),7,b
  2614  002018  D005               	goto	u2950
  2615  00201A  5199               	movf	(___fldiv@new_exp+1)& (0+255),w,b
  2616  00201C  E111               	bnz	l3182
  2617  00201E  0598               	decf	___fldiv@new_exp& (0+255),w,b
  2618  002020  B0D8               	btfsc	status,0,c
  2619  002022  D00E               	goto	l1068
  2620  002024                     u2950:
  2621                           
  2622                           ; BSR set to: 0
  2623  002024  0E00               	movlw	0
  2624  002026  6F99               	movwf	(___fldiv@new_exp+1)& (0+255),b
  2625  002028  0E00               	movlw	0
  2626  00202A  6F98               	movwf	___fldiv@new_exp& (0+255),b
  2627  00202C  0E00               	movlw	0
  2628  00202E  6F87               	movwf	___fldiv@b& (0+255),b
  2629  002030  0E00               	movlw	0
  2630  002032  6F88               	movwf	(___fldiv@b+1)& (0+255),b
  2631  002034  0E00               	movlw	0
  2632  002036  6F89               	movwf	(___fldiv@b+2)& (0+255),b
  2633  002038  0E00               	movlw	0
  2634  00203A  6F8A               	movwf	(___fldiv@b+3)& (0+255),b
  2635  00203C  0E00               	movlw	0
  2636  00203E  6F93               	movwf	___fldiv@sign& (0+255),b
  2637  002040                     l1068:
  2638  002040                     l3182:
  2639                           
  2640                           ; BSR set to: 0
  2641  002040  C098  F09E         	movff	___fldiv@new_exp,___fldiv@bexp
  2642                           
  2643                           ; BSR set to: 0
  2644  002044  A19E               	btfss	___fldiv@bexp& (0+255),0,b
  2645  002046  D002               	goto	l1069
  2646                           
  2647                           ; BSR set to: 0
  2648  002048  8F89               	bsf	(___fldiv@b+2)& (0+255),7,b
  2649  00204A  D001               	goto	l1070
  2650  00204C                     l1069:
  2651                           
  2652                           ; BSR set to: 0
  2653                           
  2654                           ; BSR set to: 0
  2655  00204C  9F89               	bcf	(___fldiv@b+2)& (0+255),7,b
  2656  00204E                     l1070:
  2657                           
  2658                           ; BSR set to: 0
  2659                           
  2660                           ; BSR set to: 0
  2661  00204E  90D8               	bcf	status,0,c
  2662  002050  319E               	rrcf	___fldiv@bexp& (0+255),w,b
  2663  002052  6F8A               	movwf	(___fldiv@b+3)& (0+255),b
  2664                           
  2665                           ; BSR set to: 0
  2666  002054  5193               	movf	___fldiv@sign& (0+255),w,b
  2667  002056  138A               	iorwf	(___fldiv@b+3)& (0+255),f,b
  2668                           
  2669                           ; BSR set to: 0
  2670  002058  C087  F087         	movff	___fldiv@b,?___fldiv
  2671  00205C  C088  F088         	movff	___fldiv@b+1,?___fldiv+1
  2672  002060  C089  F089         	movff	___fldiv@b+2,?___fldiv+2
  2673  002064  C08A  F08A         	movff	___fldiv@b+3,?___fldiv+3
  2674  002068  0012               	return	
  2675  00206A                     __end_of___fldiv:
  2676                           	opt stack 0
  2677                           tblptru	equ	0xFF8
  2678                           tblptrh	equ	0xFF7
  2679                           tblptrl	equ	0xFF6
  2680                           tablat	equ	0xFF5
  2681                           prodh	equ	0xFF4
  2682                           prodl	equ	0xFF3
  2683                           intcon	equ	0xFF2
  2684                           postinc0	equ	0xFEE
  2685                           wreg	equ	0xFE8
  2686                           postdec1	equ	0xFE5
  2687                           fsr1l	equ	0xFE1
  2688                           postinc2	equ	0xFDE
  2689                           postdec2	equ	0xFDD
  2690                           fsr2h	equ	0xFDA
  2691                           fsr2l	equ	0xFD9
  2692                           status	equ	0xFD8
  2693                           
  2694 ;; *************** function _Set_PWM3_Duty *****************
  2695 ;; Defined at:
  2696 ;;		line 166 in file "PWM_K22.c"
  2697 ;; Parameters:    Size  Location     Type
  2698 ;;  dutyValue       2    0[BANK0 ] unsigned int 
  2699 ;; Auto vars:     Size  Location     Type
  2700 ;;		None
  2701 ;; Return value:  Size  Location     Type
  2702 ;;                  1    wreg      void 
  2703 ;; Registers used:
  2704 ;;		wreg, status,2, status,0
  2705 ;; Tracked objects:
  2706 ;;		On entry : 0/0
  2707 ;;		On exit  : 0/0
  2708 ;;		Unchanged: 0/0
  2709 ;; Data sizes:     COMRAM   BANK0   BANK1   BANK2   BANK3   BANK4   BANK5   BANK6   BANK7   BANK8   BANK9  BANK10  BANK1
      +1  BANK12  BANK13  BANK14  BANK15
  2710 ;;      Params:         0       2       0       0       0       0       0       0       0       0       0       0       
      +0       0       0       0       0
  2711 ;;      Locals:         0       0       0       0       0       0       0       0       0       0       0       0       
      +0       0       0       0       0
  2712 ;;      Temps:          0       2       0       0       0       0       0       0       0       0       0       0       
      +0       0       0       0       0
  2713 ;;      Totals:         0       4       0       0       0       0       0       0       0       0       0       0       
      +0       0       0       0       0
  2714 ;;Total ram usage:        4 bytes
  2715 ;; Hardware stack levels used:    1
  2716 ;; Hardware stack levels required when called:    2
  2717 ;; This function calls:
  2718 ;;		Nothing
  2719 ;; This function is called by:
  2720 ;;		_main
  2721 ;; This function uses a non-reentrant model
  2722 ;;
  2723                           
  2724                           	psect	text5
  2725  002D2E                     __ptext5:
  2726                           	opt stack 0
  2727  002D2E                     _Set_PWM3_Duty:
  2728                           	opt stack 28
  2729                           
  2730                           ;PWM_K22.c: 169: CCPR3L = ((dutyValue & 0x03FC)>>2);
  2731                           
  2732                           ; BSR set to: 0
  2733                           ;incstack = 0
  2734  002D2E  C060  F062         	movff	Set_PWM3_Duty@dutyValue,??_Set_PWM3_Duty
  2735  002D32  C061  F063         	movff	Set_PWM3_Duty@dutyValue+1,??_Set_PWM3_Duty+1
  2736  002D36  0100               	movlb	0	; () banked
  2737  002D38  90D8               	bcf	status,0,c
  2738  002D3A  3363               	rrcf	(??_Set_PWM3_Duty+1)& (0+255),f,b
  2739  002D3C  3362               	rrcf	??_Set_PWM3_Duty& (0+255),f,b
  2740  002D3E  90D8               	bcf	status,0,c
  2741  002D40  3363               	rrcf	(??_Set_PWM3_Duty+1)& (0+255),f,b
  2742  002D42  3362               	rrcf	??_Set_PWM3_Duty& (0+255),f,b
  2743  002D44  5162               	movf	??_Set_PWM3_Duty& (0+255),w,b
  2744  002D46  010F               	movlb	15	; () banked
  2745  002D48  6F5E               	movwf	94,b	;volatile
  2746                           
  2747                           ;PWM_K22.c: 172: CCP3CON = (CCP3CON & 0xCF) | ((dutyValue & 0x0003)<<4);
  2748  002D4A  C060  F062         	movff	Set_PWM3_Duty@dutyValue,??_Set_PWM3_Duty
  2749  002D4E  0E03               	movlw	3
  2750  002D50  0100               	movlb	0	; () banked
  2751  002D52  1762               	andwf	??_Set_PWM3_Duty& (0+255),f,b
  2752  002D54  3B62               	swapf	??_Set_PWM3_Duty& (0+255),f,b
  2753  002D56  0EF0               	movlw	240
  2754  002D58  1762               	andwf	??_Set_PWM3_Duty& (0+255),f,b
  2755  002D5A  010F               	movlb	15	; () banked
  2756  002D5C  515D               	movf	93,w,b	;volatile
  2757  002D5E  0BCF               	andlw	207
  2758  002D60  0100               	movlb	0	; () banked
  2759  002D62  1162               	iorwf	??_Set_PWM3_Duty& (0+255),w,b
  2760  002D64  010F               	movlb	15	; () banked
  2761  002D66  6F5D               	movwf	93,b	;volatile
  2762                           
  2763                           ; BSR set to: 15
  2764  002D68  0012               	return		;funcret
  2765  002D6A                     __end_of_Set_PWM3_Duty:
  2766                           	opt stack 0
  2767                           tblptru	equ	0xFF8
  2768                           tblptrh	equ	0xFF7
  2769                           tblptrl	equ	0xFF6
  2770                           tablat	equ	0xFF5
  2771                           prodh	equ	0xFF4
  2772                           prodl	equ	0xFF3
  2773                           intcon	equ	0xFF2
  2774                           postinc0	equ	0xFEE
  2775                           wreg	equ	0xFE8
  2776                           postdec1	equ	0xFE5
  2777                           fsr1l	equ	0xFE1
  2778                           postinc2	equ	0xFDE
  2779                           postdec2	equ	0xFDD
  2780                           fsr2h	equ	0xFDA
  2781                           fsr2l	equ	0xFD9
  2782                           status	equ	0xFD8
  2783                           
  2784 ;; *************** function _Set_PWM2_Duty *****************
  2785 ;; Defined at:
  2786 ;;		line 157 in file "PWM_K22.c"
  2787 ;; Parameters:    Size  Location     Type
  2788 ;;  dutyValue       2    0[BANK0 ] unsigned int 
  2789 ;; Auto vars:     Size  Location     Type
  2790 ;;		None
  2791 ;; Return value:  Size  Location     Type
  2792 ;;                  1    wreg      void 
  2793 ;; Registers used:
  2794 ;;		wreg, status,2, status,0
  2795 ;; Tracked objects:
  2796 ;;		On entry : 0/0
  2797 ;;		On exit  : 0/0
  2798 ;;		Unchanged: 0/0
  2799 ;; Data sizes:     COMRAM   BANK0   BANK1   BANK2   BANK3   BANK4   BANK5   BANK6   BANK7   BANK8   BANK9  BANK10  BANK1
      +1  BANK12  BANK13  BANK14  BANK15
  2800 ;;      Params:         0       2       0       0       0       0       0       0       0       0       0       0       
      +0       0       0       0       0
  2801 ;;      Locals:         0       0       0       0       0       0       0       0       0       0       0       0       
      +0       0       0       0       0
  2802 ;;      Temps:          0       2       0       0       0       0       0       0       0       0       0       0       
      +0       0       0       0       0
  2803 ;;      Totals:         0       4       0       0       0       0       0       0       0       0       0       0       
      +0       0       0       0       0
  2804 ;;Total ram usage:        4 bytes
  2805 ;; Hardware stack levels used:    1
  2806 ;; Hardware stack levels required when called:    2
  2807 ;; This function calls:
  2808 ;;		Nothing
  2809 ;; This function is called by:
  2810 ;;		_main
  2811 ;; This function uses a non-reentrant model
  2812 ;;
  2813                           
  2814                           	psect	text6
  2815  002D6A                     __ptext6:
  2816                           	opt stack 0
  2817  002D6A                     _Set_PWM2_Duty:
  2818                           	opt stack 28
  2819                           
  2820                           ;PWM_K22.c: 160: CCPR2L = ((dutyValue & 0x03FC)>>2);
  2821                           
  2822                           ; BSR set to: 15
  2823                           ;incstack = 0
  2824  002D6A  C060  F062         	movff	Set_PWM2_Duty@dutyValue,??_Set_PWM2_Duty
  2825  002D6E  C061  F063         	movff	Set_PWM2_Duty@dutyValue+1,??_Set_PWM2_Duty+1
  2826  002D72  0100               	movlb	0	; () banked
  2827  002D74  90D8               	bcf	status,0,c
  2828  002D76  3363               	rrcf	(??_Set_PWM2_Duty+1)& (0+255),f,b
  2829  002D78  3362               	rrcf	??_Set_PWM2_Duty& (0+255),f,b
  2830  002D7A  90D8               	bcf	status,0,c
  2831  002D7C  3363               	rrcf	(??_Set_PWM2_Duty+1)& (0+255),f,b
  2832  002D7E  3362               	rrcf	??_Set_PWM2_Duty& (0+255),f,b
  2833  002D80  5162               	movf	??_Set_PWM2_Duty& (0+255),w,b
  2834  002D82  6E67               	movwf	3943,c	;volatile
  2835                           
  2836                           ;PWM_K22.c: 163: CCP2CON = (CCP2CON & 0xCF) | ((dutyValue & 0x0003)<<4);
  2837  002D84  C060  F062         	movff	Set_PWM2_Duty@dutyValue,??_Set_PWM2_Duty
  2838  002D88  0E03               	movlw	3
  2839  002D8A  1762               	andwf	??_Set_PWM2_Duty& (0+255),f,b
  2840  002D8C  3B62               	swapf	??_Set_PWM2_Duty& (0+255),f,b
  2841  002D8E  0EF0               	movlw	240
  2842  002D90  1762               	andwf	??_Set_PWM2_Duty& (0+255),f,b
  2843  002D92  5066               	movf	3942,w,c	;volatile
  2844  002D94  0BCF               	andlw	207
  2845  002D96  1162               	iorwf	??_Set_PWM2_Duty& (0+255),w,b
  2846  002D98  6E66               	movwf	3942,c	;volatile
  2847                           
  2848                           ; BSR set to: 0
  2849  002D9A  0012               	return		;funcret
  2850  002D9C                     __end_of_Set_PWM2_Duty:
  2851                           	opt stack 0
  2852                           tblptru	equ	0xFF8
  2853                           tblptrh	equ	0xFF7
  2854                           tblptrl	equ	0xFF6
  2855                           tablat	equ	0xFF5
  2856                           prodh	equ	0xFF4
  2857                           prodl	equ	0xFF3
  2858                           intcon	equ	0xFF2
  2859                           postinc0	equ	0xFEE
  2860                           wreg	equ	0xFE8
  2861                           postdec1	equ	0xFE5
  2862                           fsr1l	equ	0xFE1
  2863                           postinc2	equ	0xFDE
  2864                           postdec2	equ	0xFDD
  2865                           fsr2h	equ	0xFDA
  2866                           fsr2l	equ	0xFD9
  2867                           status	equ	0xFD8
  2868                           
  2869 ;; *************** function _Control_up *****************
  2870 ;; Defined at:
  2871 ;;		line 342 in file "main.c"
  2872 ;; Parameters:    Size  Location     Type
  2873 ;;		None
  2874 ;; Auto vars:     Size  Location     Type
  2875 ;;		None
  2876 ;; Return value:  Size  Location     Type
  2877 ;;                  1    wreg      void 
  2878 ;; Registers used:
  2879 ;;		wreg, status,2, status,0, prodl, prodh, cstack
  2880 ;; Tracked objects:
  2881 ;;		On entry : 0/0
  2882 ;;		On exit  : 0/0
  2883 ;;		Unchanged: 0/0
  2884 ;; Data sizes:     COMRAM   BANK0   BANK1   BANK2   BANK3   BANK4   BANK5   BANK6   BANK7   BANK8   BANK9  BANK10  BANK1
      +1  BANK12  BANK13  BANK14  BANK15
  2885 ;;      Params:         0       0       0       0       0       0       0       0       0       0       0       0       
      +0       0       0       0       0
  2886 ;;      Locals:         0       4       0       0       0       0       0       0       0       0       0       0       
      +0       0       0       0       0
  2887 ;;      Temps:          0       1       0       0       0       0       0       0       0       0       0       0       
      +0       0       0       0       0
  2888 ;;      Totals:         0       5       0       0       0       0       0       0       0       0       0       0       
      +0       0       0       0       0
  2889 ;;Total ram usage:        5 bytes
  2890 ;; Hardware stack levels used:    1
  2891 ;; Hardware stack levels required when called:    3
  2892 ;; This function calls:
  2893 ;;		___fladd
  2894 ;;		___flge
  2895 ;;		___flmul
  2896 ;;		___flneg
  2897 ;; This function is called by:
  2898 ;;		_main
  2899 ;; This function uses a non-reentrant model
  2900 ;;
  2901                           
  2902                           	psect	text7
  2903  00254E                     __ptext7:
  2904                           	opt stack 0
  2905  00254E                     _Control_up:
  2906                           	opt stack 27
  2907                           
  2908                           ;main.c: 345: Erro1 = SetPoint * 1.0 - Angle * 1.0;
  2909                           
  2910                           ; BSR set to: 0
  2911                           ;incstack = 0
  2912  00254E  0E00               	movlw	0
  2913  002550  0100               	movlb	0	; () banked
  2914  002552  6F72               	movwf	___flmul@a& (0+255),b
  2915  002554  0E00               	movlw	0
  2916  002556  6F73               	movwf	(___flmul@a+1)& (0+255),b
  2917  002558  0E80               	movlw	128
  2918  00255A  6F74               	movwf	(___flmul@a+2)& (0+255),b
  2919  00255C  0E3F               	movlw	63
  2920  00255E  6F75               	movwf	(___flmul@a+3)& (0+255),b
  2921  002560  C0F0  F06E         	movff	_SetPoint,___flmul@b
  2922  002564  C0F1  F06F         	movff	_SetPoint+1,___flmul@b+1
  2923  002568  C0F2  F070         	movff	_SetPoint+2,___flmul@b+2
  2924  00256C  C0F3  F071         	movff	_SetPoint+3,___flmul@b+3
  2925  002570  ECEA  F009         	call	___flmul	;wreg free
  2926  002574  C06E  F08B         	movff	?___flmul,___fladd@b
  2927  002578  C06F  F08C         	movff	?___flmul+1,___fladd@b+1
  2928  00257C  C070  F08D         	movff	?___flmul+2,___fladd@b+2
  2929  002580  C071  F08E         	movff	?___flmul+3,___fladd@b+3
  2930  002584  0E00               	movlw	0
  2931  002586  0100               	movlb	0	; () banked
  2932  002588  6F72               	movwf	___flmul@a& (0+255),b
  2933  00258A  0E00               	movlw	0
  2934  00258C  6F73               	movwf	(___flmul@a+1)& (0+255),b
  2935  00258E  0E80               	movlw	128
  2936  002590  6F74               	movwf	(___flmul@a+2)& (0+255),b
  2937  002592  0E3F               	movlw	63
  2938  002594  6F75               	movwf	(___flmul@a+3)& (0+255),b
  2939  002596  C0EC  F06E         	movff	_Angle,___flmul@b
  2940  00259A  C0ED  F06F         	movff	_Angle+1,___flmul@b+1
  2941  00259E  C0EE  F070         	movff	_Angle+2,___flmul@b+2
  2942  0025A2  C0EF  F071         	movff	_Angle+3,___flmul@b+3
  2943  0025A6  ECEA  F009         	call	___flmul	;wreg free
  2944  0025AA  C06E  F087         	movff	?___flmul,___flneg@f1
  2945  0025AE  C06F  F088         	movff	?___flmul+1,___flneg@f1+1
  2946  0025B2  C070  F089         	movff	?___flmul+2,___flneg@f1+2
  2947  0025B6  C071  F08A         	movff	?___flmul+3,___flneg@f1+3
  2948  0025BA  ECCE  F016         	call	___flneg	;wreg free
  2949  0025BE  C087  F08F         	movff	?___flneg,___fladd@a
  2950  0025C2  C088  F090         	movff	?___flneg+1,___fladd@a+1
  2951  0025C6  C089  F091         	movff	?___flneg+2,___fladd@a+2
  2952  0025CA  C08A  F092         	movff	?___flneg+3,___fladd@a+3
  2953  0025CE  EC3B  F00D         	call	___fladd	;wreg free
  2954  0025D2  C08B  F0B0         	movff	?___fladd,_Erro1
  2955  0025D6  C08C  F0B1         	movff	?___fladd+1,_Erro1+1
  2956  0025DA  C08D  F0B2         	movff	?___fladd+2,_Erro1+2
  2957  0025DE  C08E  F0B3         	movff	?___fladd+3,_Erro1+3
  2958                           
  2959                           ;main.c: 347: LATCbits.LATC0 = !LATCbits.LATC0;
  2960  0025E2  B08B               	btfsc	3979,0,c	;volatile
  2961  0025E4  D004               	goto	u2680
  2962  0025E6  0100               	movlb	0	; () banked
  2963  0025E8  6B9F               	clrf	??_Control_up& (0+255),b
  2964  0025EA  2B9F               	incf	??_Control_up& (0+255),f,b
  2965  0025EC  D002               	goto	u2698
  2966  0025EE                     u2680:
  2967  0025EE  0100               	movlb	0	; () banked
  2968  0025F0  6B9F               	clrf	??_Control_up& (0+255),b
  2969  0025F2                     u2698:
  2970  0025F2  508B               	movf	3979,w,c	;volatile
  2971  0025F4  199F               	xorwf	??_Control_up& (0+255),w,b
  2972  0025F6  0BFE               	andlw	-2
  2973  0025F8  199F               	xorwf	??_Control_up& (0+255),w,b
  2974  0025FA  6E8B               	movwf	3979,c	;volatile
  2975                           
  2976                           ; BSR set to: 0
  2977                           ;main.c: 348: u_i = ui_ant + constante_integrador * (Erro1 + e1_ant);
  2978  0025FC  C130  F072         	movff	_constante_integrador,___flmul@a
  2979  002600  C131  F073         	movff	_constante_integrador+1,___flmul@a+1
  2980  002604  C132  F074         	movff	_constante_integrador+2,___flmul@a+2
  2981  002608  C133  F075         	movff	_constante_integrador+3,___flmul@a+3
  2982  00260C  C0C4  F08F         	movff	_e1_ant,___fladd@a
  2983  002610  C0C5  F090         	movff	_e1_ant+1,___fladd@a+1
  2984  002614  C0C6  F091         	movff	_e1_ant+2,___fladd@a+2
  2985  002618  C0C7  F092         	movff	_e1_ant+3,___fladd@a+3
  2986  00261C  C0B0  F08B         	movff	_Erro1,___fladd@b
  2987  002620  C0B1  F08C         	movff	_Erro1+1,___fladd@b+1
  2988  002624  C0B2  F08D         	movff	_Erro1+2,___fladd@b+2
  2989  002628  C0B3  F08E         	movff	_Erro1+3,___fladd@b+3
  2990  00262C  EC3B  F00D         	call	___fladd	;wreg free
  2991  002630  C08B  F06E         	movff	?___fladd,___flmul@b
  2992  002634  C08C  F06F         	movff	?___fladd+1,___flmul@b+1
  2993  002638  C08D  F070         	movff	?___fladd+2,___flmul@b+2
  2994  00263C  C08E  F071         	movff	?___fladd+3,___flmul@b+3
  2995  002640  ECEA  F009         	call	___flmul	;wreg free
  2996  002644  C06E  F0A0         	movff	?___flmul,_Control_up$2669
  2997  002648  C06F  F0A1         	movff	?___flmul+1,_Control_up$2669+1
  2998  00264C  C070  F0A2         	movff	?___flmul+2,_Control_up$2669+2
  2999  002650  C071  F0A3         	movff	?___flmul+3,_Control_up$2669+3
  3000                           
  3001                           ;main.c: 348: u_i = ui_ant + constante_integrador * (Erro1 + e1_ant);
  3002  002654  C0A0  F08B         	movff	_Control_up$2669,___fladd@b
  3003  002658  C0A1  F08C         	movff	_Control_up$2669+1,___fladd@b+1
  3004  00265C  C0A2  F08D         	movff	_Control_up$2669+2,___fladd@b+2
  3005  002660  C0A3  F08E         	movff	_Control_up$2669+3,___fladd@b+3
  3006  002664  C0B8  F08F         	movff	_ui_ant,___fladd@a
  3007  002668  C0B9  F090         	movff	_ui_ant+1,___fladd@a+1
  3008  00266C  C0BA  F091         	movff	_ui_ant+2,___fladd@a+2
  3009  002670  C0BB  F092         	movff	_ui_ant+3,___fladd@a+3
  3010  002674  EC3B  F00D         	call	___fladd	;wreg free
  3011  002678  C08B  F0BC         	movff	?___fladd,_u_i
  3012  00267C  C08C  F0BD         	movff	?___fladd+1,_u_i+1
  3013  002680  C08D  F0BE         	movff	?___fladd+2,_u_i+2
  3014  002684  C08E  F0BF         	movff	?___fladd+3,_u_i+3
  3015                           
  3016                           ;main.c: 350: u_p = Kp*Erro1;
  3017  002688  C0F4  F06E         	movff	_Kp,___flmul@b
  3018  00268C  C0F5  F06F         	movff	_Kp+1,___flmul@b+1
  3019  002690  C0F6  F070         	movff	_Kp+2,___flmul@b+2
  3020  002694  C0F7  F071         	movff	_Kp+3,___flmul@b+3
  3021  002698  C0B0  F072         	movff	_Erro1,___flmul@a
  3022  00269C  C0B1  F073         	movff	_Erro1+1,___flmul@a+1
  3023  0026A0  C0B2  F074         	movff	_Erro1+2,___flmul@a+2
  3024  0026A4  C0B3  F075         	movff	_Erro1+3,___flmul@a+3
  3025  0026A8  ECEA  F009         	call	___flmul	;wreg free
  3026  0026AC  C06E  F11C         	movff	?___flmul,_u_p
  3027  0026B0  C06F  F11D         	movff	?___flmul+1,_u_p+1
  3028  0026B4  C070  F11E         	movff	?___flmul+2,_u_p+2
  3029  0026B8  C071  F11F         	movff	?___flmul+3,_u_p+3
  3030                           
  3031                           ;main.c: 352: Out1 = u_i + u_p;
  3032  0026BC  C0BC  F08B         	movff	_u_i,___fladd@b
  3033  0026C0  C0BD  F08C         	movff	_u_i+1,___fladd@b+1
  3034  0026C4  C0BE  F08D         	movff	_u_i+2,___fladd@b+2
  3035  0026C8  C0BF  F08E         	movff	_u_i+3,___fladd@b+3
  3036  0026CC  C11C  F08F         	movff	_u_p,___fladd@a
  3037  0026D0  C11D  F090         	movff	_u_p+1,___fladd@a+1
  3038  0026D4  C11E  F091         	movff	_u_p+2,___fladd@a+2
  3039  0026D8  C11F  F092         	movff	_u_p+3,___fladd@a+3
  3040  0026DC  EC3B  F00D         	call	___fladd	;wreg free
  3041  0026E0  C08B  F0AC         	movff	?___fladd,_Out1
  3042  0026E4  C08C  F0AD         	movff	?___fladd+1,_Out1+1
  3043  0026E8  C08D  F0AE         	movff	?___fladd+2,_Out1+2
  3044  0026EC  C08E  F0AF         	movff	?___fladd+3,_Out1+3
  3045                           
  3046                           ;main.c: 354: e1_ant = Erro1;
  3047  0026F0  C0B0  F0C4         	movff	_Erro1,_e1_ant
  3048  0026F4  C0B1  F0C5         	movff	_Erro1+1,_e1_ant+1
  3049  0026F8  C0B2  F0C6         	movff	_Erro1+2,_e1_ant+2
  3050  0026FC  C0B3  F0C7         	movff	_Erro1+3,_e1_ant+3
  3051                           
  3052                           ;main.c: 355: ui_ant = u_i;
  3053  002700  C0BC  F0B8         	movff	_u_i,_ui_ant
  3054  002704  C0BD  F0B9         	movff	_u_i+1,_ui_ant+1
  3055  002708  C0BE  F0BA         	movff	_u_i+2,_ui_ant+2
  3056  00270C  C0BF  F0BB         	movff	_u_i+3,_ui_ant+3
  3057                           
  3058                           ;main.c: 357: if (Out1 > 500.0)
  3059  002710  0E00               	movlw	0
  3060  002712  0100               	movlb	0	; () banked
  3061  002714  6F60               	movwf	___flge@ff1& (0+255),b
  3062  002716  0E00               	movlw	0
  3063  002718  6F61               	movwf	(___flge@ff1+1)& (0+255),b
  3064  00271A  0EFA               	movlw	250
  3065  00271C  6F62               	movwf	(___flge@ff1+2)& (0+255),b
  3066  00271E  0E43               	movlw	67
  3067  002720  6F63               	movwf	(___flge@ff1+3)& (0+255),b
  3068  002722  C0AC  F064         	movff	_Out1,___flge@ff2
  3069  002726  C0AD  F065         	movff	_Out1+1,___flge@ff2+1
  3070  00272A  C0AE  F066         	movff	_Out1+2,___flge@ff2+2
  3071  00272E  C0AF  F067         	movff	_Out1+3,___flge@ff2+3
  3072  002732  EC03  F015         	call	___flge	;wreg free
  3073  002736  0100               	movlb	0	; () banked
  3074  002738  B0D8               	btfsc	status,0,c
  3075  00273A  D008               	goto	l193
  3076                           
  3077                           ; BSR set to: 0
  3078                           ;main.c: 358: Out1 = 500.0;
  3079  00273C  0E00               	movlw	0
  3080  00273E  6FAC               	movwf	_Out1& (0+255),b
  3081  002740  0E00               	movlw	0
  3082  002742  6FAD               	movwf	(_Out1+1)& (0+255),b
  3083  002744  0EFA               	movlw	250
  3084  002746  6FAE               	movwf	(_Out1+2)& (0+255),b
  3085  002748  0E43               	movlw	67
  3086  00274A  6FAF               	movwf	(_Out1+3)& (0+255),b
  3087  00274C                     l193:
  3088                           
  3089                           ; BSR set to: 0
  3090                           ;main.c: 360: if (Out1 < 0.0)
  3091                           
  3092                           ; BSR set to: 0
  3093  00274C  AFAF               	btfss	(_Out1+3)& (0+255),7,b
  3094  00274E  0012               	return	
  3095                           
  3096                           ; BSR set to: 0
  3097                           ;main.c: 361: Out1 = 0.0;
  3098  002750  0E00               	movlw	0
  3099  002752  6FAC               	movwf	_Out1& (0+255),b
  3100  002754  0E00               	movlw	0
  3101  002756  6FAD               	movwf	(_Out1+1)& (0+255),b
  3102  002758  0E00               	movlw	0
  3103  00275A  6FAE               	movwf	(_Out1+2)& (0+255),b
  3104  00275C  0E00               	movlw	0
  3105  00275E  6FAF               	movwf	(_Out1+3)& (0+255),b
  3106  002760  0012               	return	
  3107  002762                     __end_of_Control_up:
  3108                           	opt stack 0
  3109                           tblptru	equ	0xFF8
  3110                           tblptrh	equ	0xFF7
  3111                           tblptrl	equ	0xFF6
  3112                           tablat	equ	0xFF5
  3113                           prodh	equ	0xFF4
  3114                           prodl	equ	0xFF3
  3115                           intcon	equ	0xFF2
  3116                           postinc0	equ	0xFEE
  3117                           wreg	equ	0xFE8
  3118                           postdec1	equ	0xFE5
  3119                           fsr1l	equ	0xFE1
  3120                           postinc2	equ	0xFDE
  3121                           postdec2	equ	0xFDD
  3122                           fsr2h	equ	0xFDA
  3123                           fsr2l	equ	0xFD9
  3124                           status	equ	0xFD8
  3125                           
  3126 ;; *************** function _Control_down *****************
  3127 ;; Defined at:
  3128 ;;		line 365 in file "main.c"
  3129 ;; Parameters:    Size  Location     Type
  3130 ;;		None
  3131 ;; Auto vars:     Size  Location     Type
  3132 ;;		None
  3133 ;; Return value:  Size  Location     Type
  3134 ;;                  1    wreg      void 
  3135 ;; Registers used:
  3136 ;;		wreg, status,2, status,0, prodl, prodh, cstack
  3137 ;; Tracked objects:
  3138 ;;		On entry : 0/0
  3139 ;;		On exit  : 0/0
  3140 ;;		Unchanged: 0/0
  3141 ;; Data sizes:     COMRAM   BANK0   BANK1   BANK2   BANK3   BANK4   BANK5   BANK6   BANK7   BANK8   BANK9  BANK10  BANK1
      +1  BANK12  BANK13  BANK14  BANK15
  3142 ;;      Params:         0       0       0       0       0       0       0       0       0       0       0       0       
      +0       0       0       0       0
  3143 ;;      Locals:         0       4       0       0       0       0       0       0       0       0       0       0       
      +0       0       0       0       0
  3144 ;;      Temps:          0       0       0       0       0       0       0       0       0       0       0       0       
      +0       0       0       0       0
  3145 ;;      Totals:         0       4       0       0       0       0       0       0       0       0       0       0       
      +0       0       0       0       0
  3146 ;;Total ram usage:        4 bytes
  3147 ;; Hardware stack levels used:    1
  3148 ;; Hardware stack levels required when called:    3
  3149 ;; This function calls:
  3150 ;;		___fladd
  3151 ;;		___flge
  3152 ;;		___flmul
  3153 ;;		___flneg
  3154 ;; This function is called by:
  3155 ;;		_main
  3156 ;; This function uses a non-reentrant model
  3157 ;;
  3158                           
  3159                           	psect	text8
  3160  00231E                     __ptext8:
  3161                           	opt stack 0
  3162  00231E                     _Control_down:
  3163                           	opt stack 27
  3164                           
  3165                           ;main.c: 368: Erro2 = SetPoint * 1.0 - Angle * 1.0;
  3166                           
  3167                           ; BSR set to: 0
  3168                           ;incstack = 0
  3169  00231E  0E00               	movlw	0
  3170  002320  0100               	movlb	0	; () banked
  3171  002322  6F72               	movwf	___flmul@a& (0+255),b
  3172  002324  0E00               	movlw	0
  3173  002326  6F73               	movwf	(___flmul@a+1)& (0+255),b
  3174  002328  0E80               	movlw	128
  3175  00232A  6F74               	movwf	(___flmul@a+2)& (0+255),b
  3176  00232C  0E3F               	movlw	63
  3177  00232E  6F75               	movwf	(___flmul@a+3)& (0+255),b
  3178  002330  C0F0  F06E         	movff	_SetPoint,___flmul@b
  3179  002334  C0F1  F06F         	movff	_SetPoint+1,___flmul@b+1
  3180  002338  C0F2  F070         	movff	_SetPoint+2,___flmul@b+2
  3181  00233C  C0F3  F071         	movff	_SetPoint+3,___flmul@b+3
  3182  002340  ECEA  F009         	call	___flmul	;wreg free
  3183  002344  C06E  F08B         	movff	?___flmul,___fladd@b
  3184  002348  C06F  F08C         	movff	?___flmul+1,___fladd@b+1
  3185  00234C  C070  F08D         	movff	?___flmul+2,___fladd@b+2
  3186  002350  C071  F08E         	movff	?___flmul+3,___fladd@b+3
  3187  002354  0E00               	movlw	0
  3188  002356  0100               	movlb	0	; () banked
  3189  002358  6F72               	movwf	___flmul@a& (0+255),b
  3190  00235A  0E00               	movlw	0
  3191  00235C  6F73               	movwf	(___flmul@a+1)& (0+255),b
  3192  00235E  0E80               	movlw	128
  3193  002360  6F74               	movwf	(___flmul@a+2)& (0+255),b
  3194  002362  0E3F               	movlw	63
  3195  002364  6F75               	movwf	(___flmul@a+3)& (0+255),b
  3196  002366  C0EC  F06E         	movff	_Angle,___flmul@b
  3197  00236A  C0ED  F06F         	movff	_Angle+1,___flmul@b+1
  3198  00236E  C0EE  F070         	movff	_Angle+2,___flmul@b+2
  3199  002372  C0EF  F071         	movff	_Angle+3,___flmul@b+3
  3200  002376  ECEA  F009         	call	___flmul	;wreg free
  3201  00237A  C06E  F087         	movff	?___flmul,___flneg@f1
  3202  00237E  C06F  F088         	movff	?___flmul+1,___flneg@f1+1
  3203  002382  C070  F089         	movff	?___flmul+2,___flneg@f1+2
  3204  002386  C071  F08A         	movff	?___flmul+3,___flneg@f1+3
  3205  00238A  ECCE  F016         	call	___flneg	;wreg free
  3206  00238E  C087  F08F         	movff	?___flneg,___fladd@a
  3207  002392  C088  F090         	movff	?___flneg+1,___fladd@a+1
  3208  002396  C089  F091         	movff	?___flneg+2,___fladd@a+2
  3209  00239A  C08A  F092         	movff	?___flneg+3,___fladd@a+3
  3210  00239E  EC3B  F00D         	call	___fladd	;wreg free
  3211  0023A2  C08B  F0E6         	movff	?___fladd,_Erro2
  3212  0023A6  C08C  F0E7         	movff	?___fladd+1,_Erro2+1
  3213  0023AA  C08D  F0E8         	movff	?___fladd+2,_Erro2+2
  3214  0023AE  C08E  F0E9         	movff	?___fladd+3,_Erro2+3
  3215                           
  3216                           ;main.c: 369: Erro2 = Erro2*-1;
  3217  0023B2  C0E6  F06E         	movff	_Erro2,___flmul@b
  3218  0023B6  C0E7  F06F         	movff	_Erro2+1,___flmul@b+1
  3219  0023BA  C0E8  F070         	movff	_Erro2+2,___flmul@b+2
  3220  0023BE  C0E9  F071         	movff	_Erro2+3,___flmul@b+3
  3221  0023C2  0E00               	movlw	0
  3222  0023C4  0100               	movlb	0	; () banked
  3223  0023C6  6F72               	movwf	___flmul@a& (0+255),b
  3224  0023C8  0E00               	movlw	0
  3225  0023CA  6F73               	movwf	(___flmul@a+1)& (0+255),b
  3226  0023CC  0E80               	movlw	128
  3227  0023CE  6F74               	movwf	(___flmul@a+2)& (0+255),b
  3228  0023D0  0EBF               	movlw	191
  3229  0023D2  6F75               	movwf	(___flmul@a+3)& (0+255),b
  3230  0023D4  ECEA  F009         	call	___flmul	;wreg free
  3231  0023D8  C06E  F0E6         	movff	?___flmul,_Erro2
  3232  0023DC  C06F  F0E7         	movff	?___flmul+1,_Erro2+1
  3233  0023E0  C070  F0E8         	movff	?___flmul+2,_Erro2+2
  3234  0023E4  C071  F0E9         	movff	?___flmul+3,_Erro2+3
  3235                           
  3236                           ;main.c: 374: u_i2 = ui_ant2 + constante_integrador2 * (Erro2 + e2_ant);
  3237  0023E8  C12C  F072         	movff	_constante_integrador2,___flmul@a
  3238  0023EC  C12D  F073         	movff	_constante_integrador2+1,___flmul@a+1
  3239  0023F0  C12E  F074         	movff	_constante_integrador2+2,___flmul@a+2
  3240  0023F4  C12F  F075         	movff	_constante_integrador2+3,___flmul@a+3
  3241  0023F8  C0C0  F08F         	movff	_e2_ant,___fladd@a
  3242  0023FC  C0C1  F090         	movff	_e2_ant+1,___fladd@a+1
  3243  002400  C0C2  F091         	movff	_e2_ant+2,___fladd@a+2
  3244  002404  C0C3  F092         	movff	_e2_ant+3,___fladd@a+3
  3245  002408  C0E6  F08B         	movff	_Erro2,___fladd@b
  3246  00240C  C0E7  F08C         	movff	_Erro2+1,___fladd@b+1
  3247  002410  C0E8  F08D         	movff	_Erro2+2,___fladd@b+2
  3248  002414  C0E9  F08E         	movff	_Erro2+3,___fladd@b+3
  3249  002418  EC3B  F00D         	call	___fladd	;wreg free
  3250  00241C  C08B  F06E         	movff	?___fladd,___flmul@b
  3251  002420  C08C  F06F         	movff	?___fladd+1,___flmul@b+1
  3252  002424  C08D  F070         	movff	?___fladd+2,___flmul@b+2
  3253  002428  C08E  F071         	movff	?___fladd+3,___flmul@b+3
  3254  00242C  ECEA  F009         	call	___flmul	;wreg free
  3255  002430  C06E  F09F         	movff	?___flmul,_Control_down$2670
  3256  002434  C06F  F0A0         	movff	?___flmul+1,_Control_down$2670+1
  3257  002438  C070  F0A1         	movff	?___flmul+2,_Control_down$2670+2
  3258  00243C  C071  F0A2         	movff	?___flmul+3,_Control_down$2670+3
  3259                           
  3260                           ;main.c: 374: u_i2 = ui_ant2 + constante_integrador2 * (Erro2 + e2_ant);
  3261  002440  C09F  F08B         	movff	_Control_down$2670,___fladd@b
  3262  002444  C0A0  F08C         	movff	_Control_down$2670+1,___fladd@b+1
  3263  002448  C0A1  F08D         	movff	_Control_down$2670+2,___fladd@b+2
  3264  00244C  C0A2  F08E         	movff	_Control_down$2670+3,___fladd@b+3
  3265  002450  C118  F08F         	movff	_ui_ant2,___fladd@a
  3266  002454  C119  F090         	movff	_ui_ant2+1,___fladd@a+1
  3267  002458  C11A  F091         	movff	_ui_ant2+2,___fladd@a+2
  3268  00245C  C11B  F092         	movff	_ui_ant2+3,___fladd@a+3
  3269  002460  EC3B  F00D         	call	___fladd	;wreg free
  3270  002464  C08B  F0B4         	movff	?___fladd,_u_i2
  3271  002468  C08C  F0B5         	movff	?___fladd+1,_u_i2+1
  3272  00246C  C08D  F0B6         	movff	?___fladd+2,_u_i2+2
  3273  002470  C08E  F0B7         	movff	?___fladd+3,_u_i2+3
  3274                           
  3275                           ;main.c: 376: u_p2 = Kp2*Erro2;
  3276  002474  C0F8  F06E         	movff	_Kp2,___flmul@b
  3277  002478  C0F9  F06F         	movff	_Kp2+1,___flmul@b+1
  3278  00247C  C0FA  F070         	movff	_Kp2+2,___flmul@b+2
  3279  002480  C0FB  F071         	movff	_Kp2+3,___flmul@b+3
  3280  002484  C0E6  F072         	movff	_Erro2,___flmul@a
  3281  002488  C0E7  F073         	movff	_Erro2+1,___flmul@a+1
  3282  00248C  C0E8  F074         	movff	_Erro2+2,___flmul@a+2
  3283  002490  C0E9  F075         	movff	_Erro2+3,___flmul@a+3
  3284  002494  ECEA  F009         	call	___flmul	;wreg free
  3285  002498  C06E  F114         	movff	?___flmul,_u_p2
  3286  00249C  C06F  F115         	movff	?___flmul+1,_u_p2+1
  3287  0024A0  C070  F116         	movff	?___flmul+2,_u_p2+2
  3288  0024A4  C071  F117         	movff	?___flmul+3,_u_p2+3
  3289                           
  3290                           ;main.c: 378: Out2 = u_i2 + u_p2;
  3291  0024A8  C0B4  F08B         	movff	_u_i2,___fladd@b
  3292  0024AC  C0B5  F08C         	movff	_u_i2+1,___fladd@b+1
  3293  0024B0  C0B6  F08D         	movff	_u_i2+2,___fladd@b+2
  3294  0024B4  C0B7  F08E         	movff	_u_i2+3,___fladd@b+3
  3295  0024B8  C114  F08F         	movff	_u_p2,___fladd@a
  3296  0024BC  C115  F090         	movff	_u_p2+1,___fladd@a+1
  3297  0024C0  C116  F091         	movff	_u_p2+2,___fladd@a+2
  3298  0024C4  C117  F092         	movff	_u_p2+3,___fladd@a+3
  3299  0024C8  EC3B  F00D         	call	___fladd	;wreg free
  3300  0024CC  C08B  F0A8         	movff	?___fladd,_Out2
  3301  0024D0  C08C  F0A9         	movff	?___fladd+1,_Out2+1
  3302  0024D4  C08D  F0AA         	movff	?___fladd+2,_Out2+2
  3303  0024D8  C08E  F0AB         	movff	?___fladd+3,_Out2+3
  3304                           
  3305                           ;main.c: 380: e2_ant = Erro2;
  3306  0024DC  C0E6  F0C0         	movff	_Erro2,_e2_ant
  3307  0024E0  C0E7  F0C1         	movff	_Erro2+1,_e2_ant+1
  3308  0024E4  C0E8  F0C2         	movff	_Erro2+2,_e2_ant+2
  3309  0024E8  C0E9  F0C3         	movff	_Erro2+3,_e2_ant+3
  3310                           
  3311                           ;main.c: 381: ui_ant2 = u_i2;
  3312  0024EC  C0B4  F118         	movff	_u_i2,_ui_ant2
  3313  0024F0  C0B5  F119         	movff	_u_i2+1,_ui_ant2+1
  3314  0024F4  C0B6  F11A         	movff	_u_i2+2,_ui_ant2+2
  3315  0024F8  C0B7  F11B         	movff	_u_i2+3,_ui_ant2+3
  3316                           
  3317                           ;main.c: 383: if (Out2 > 100.0)
  3318  0024FC  0E00               	movlw	0
  3319  0024FE  0100               	movlb	0	; () banked
  3320  002500  6F60               	movwf	___flge@ff1& (0+255),b
  3321  002502  0E00               	movlw	0
  3322  002504  6F61               	movwf	(___flge@ff1+1)& (0+255),b
  3323  002506  0EC8               	movlw	200
  3324  002508  6F62               	movwf	(___flge@ff1+2)& (0+255),b
  3325  00250A  0E42               	movlw	66
  3326  00250C  6F63               	movwf	(___flge@ff1+3)& (0+255),b
  3327  00250E  C0A8  F064         	movff	_Out2,___flge@ff2
  3328  002512  C0A9  F065         	movff	_Out2+1,___flge@ff2+1
  3329  002516  C0AA  F066         	movff	_Out2+2,___flge@ff2+2
  3330  00251A  C0AB  F067         	movff	_Out2+3,___flge@ff2+3
  3331  00251E  EC03  F015         	call	___flge	;wreg free
  3332  002522  0100               	movlb	0	; () banked
  3333  002524  B0D8               	btfsc	status,0,c
  3334  002526  D008               	goto	l198
  3335                           
  3336                           ; BSR set to: 0
  3337                           ;main.c: 384: Out2 = 100.0;
  3338  002528  0E00               	movlw	0
  3339  00252A  6FA8               	movwf	_Out2& (0+255),b
  3340  00252C  0E00               	movlw	0
  3341  00252E  6FA9               	movwf	(_Out2+1)& (0+255),b
  3342  002530  0EC8               	movlw	200
  3343  002532  6FAA               	movwf	(_Out2+2)& (0+255),b
  3344  002534  0E42               	movlw	66
  3345  002536  6FAB               	movwf	(_Out2+3)& (0+255),b
  3346  002538                     l198:
  3347                           
  3348                           ; BSR set to: 0
  3349                           ;main.c: 386: if (Out2 < 0.0)
  3350                           
  3351                           ; BSR set to: 0
  3352  002538  AFAB               	btfss	(_Out2+3)& (0+255),7,b
  3353  00253A  0012               	return	
  3354                           
  3355                           ; BSR set to: 0
  3356                           ;main.c: 387: Out2 = 0.0;
  3357  00253C  0E00               	movlw	0
  3358  00253E  6FA8               	movwf	_Out2& (0+255),b
  3359  002540  0E00               	movlw	0
  3360  002542  6FA9               	movwf	(_Out2+1)& (0+255),b
  3361  002544  0E00               	movlw	0
  3362  002546  6FAA               	movwf	(_Out2+2)& (0+255),b
  3363  002548  0E00               	movlw	0
  3364  00254A  6FAB               	movwf	(_Out2+3)& (0+255),b
  3365  00254C  0012               	return	
  3366  00254E                     __end_of_Control_down:
  3367                           	opt stack 0
  3368                           tblptru	equ	0xFF8
  3369                           tblptrh	equ	0xFF7
  3370                           tblptrl	equ	0xFF6
  3371                           tablat	equ	0xFF5
  3372                           prodh	equ	0xFF4
  3373                           prodl	equ	0xFF3
  3374                           intcon	equ	0xFF2
  3375                           postinc0	equ	0xFEE
  3376                           wreg	equ	0xFE8
  3377                           postdec1	equ	0xFE5
  3378                           fsr1l	equ	0xFE1
  3379                           postinc2	equ	0xFDE
  3380                           postdec2	equ	0xFDD
  3381                           fsr2h	equ	0xFDA
  3382                           fsr2l	equ	0xFD9
  3383                           status	equ	0xFD8
  3384                           
  3385 ;; *************** function ___flneg *****************
  3386 ;; Defined at:
  3387 ;;		line 15 in file "C:\Program Files (x86)\Microchip\xc8\v1.45\sources\common\flneg.c"
  3388 ;; Parameters:    Size  Location     Type
  3389 ;;  f1              4   39[BANK0 ] void 
  3390 ;; Auto vars:     Size  Location     Type
  3391 ;;		None
  3392 ;; Return value:  Size  Location     Type
  3393 ;;                  4   39[BANK0 ] void 
  3394 ;; Registers used:
  3395 ;;		wreg, status,2, status,0
  3396 ;; Tracked objects:
  3397 ;;		On entry : 0/0
  3398 ;;		On exit  : 0/0
  3399 ;;		Unchanged: 0/0
  3400 ;; Data sizes:     COMRAM   BANK0   BANK1   BANK2   BANK3   BANK4   BANK5   BANK6   BANK7   BANK8   BANK9  BANK10  BANK1
      +1  BANK12  BANK13  BANK14  BANK15
  3401 ;;      Params:         0       4       0       0       0       0       0       0       0       0       0       0       
      +0       0       0       0       0
  3402 ;;      Locals:         0       0       0       0       0       0       0       0       0       0       0       0       
      +0       0       0       0       0
  3403 ;;      Temps:          0       0       0       0       0       0       0       0       0       0       0       0       
      +0       0       0       0       0
  3404 ;;      Totals:         0       4       0       0       0       0       0       0       0       0       0       0       
      +0       0       0       0       0
  3405 ;;Total ram usage:        4 bytes
  3406 ;; Hardware stack levels used:    1
  3407 ;; Hardware stack levels required when called:    2
  3408 ;; This function calls:
  3409 ;;		Nothing
  3410 ;; This function is called by:
  3411 ;;		_Control_up
  3412 ;;		_Control_down
  3413 ;;		_controle_vb
  3414 ;; This function uses a non-reentrant model
  3415 ;;
  3416                           
  3417                           	psect	text9
  3418  002D9C                     __ptext9:
  3419                           	opt stack 0
  3420  002D9C                     ___flneg:
  3421                           	opt stack 27
  3422                           
  3423                           ; BSR set to: 0
  3424                           ;incstack = 0
  3425  002D9C  0100               	movlb	0	; () banked
  3426  002D9E  5187               	movf	___flneg@f1& (0+255),w,b
  3427  002DA0  1188               	iorwf	(___flneg@f1+1)& (0+255),w,b
  3428  002DA2  1189               	iorwf	(___flneg@f1+2)& (0+255),w,b
  3429  002DA4  118A               	iorwf	(___flneg@f1+3)& (0+255),w,b
  3430  002DA6  B4D8               	btfsc	status,2,c
  3431  002DA8  D008               	goto	l761
  3432                           
  3433                           ; BSR set to: 0
  3434  002DAA  0E00               	movlw	0
  3435  002DAC  1B87               	xorwf	___flneg@f1& (0+255),f,b
  3436  002DAE  0E00               	movlw	0
  3437  002DB0  1B88               	xorwf	(___flneg@f1+1)& (0+255),f,b
  3438  002DB2  0E00               	movlw	0
  3439  002DB4  1B89               	xorwf	(___flneg@f1+2)& (0+255),f,b
  3440  002DB6  0E80               	movlw	128
  3441  002DB8  1B8A               	xorwf	(___flneg@f1+3)& (0+255),f,b
  3442  002DBA                     l761:
  3443                           
  3444                           ; BSR set to: 0
  3445                           
  3446                           ; BSR set to: 0
  3447  002DBA  C087  F087         	movff	___flneg@f1,?___flneg
  3448  002DBE  C088  F088         	movff	___flneg@f1+1,?___flneg+1
  3449  002DC2  C089  F089         	movff	___flneg@f1+2,?___flneg+2
  3450  002DC6  C08A  F08A         	movff	___flneg@f1+3,?___flneg+3
  3451  002DCA  0012               	return	
  3452  002DCC                     __end_of___flneg:
  3453                           	opt stack 0
  3454                           tblptru	equ	0xFF8
  3455                           tblptrh	equ	0xFF7
  3456                           tblptrl	equ	0xFF6
  3457                           tablat	equ	0xFF5
  3458                           prodh	equ	0xFF4
  3459                           prodl	equ	0xFF3
  3460                           intcon	equ	0xFF2
  3461                           postinc0	equ	0xFEE
  3462                           wreg	equ	0xFE8
  3463                           postdec1	equ	0xFE5
  3464                           fsr1l	equ	0xFE1
  3465                           postinc2	equ	0xFDE
  3466                           postdec2	equ	0xFDD
  3467                           fsr2h	equ	0xFDA
  3468                           fsr2l	equ	0xFD9
  3469                           status	equ	0xFD8
  3470                           
  3471 ;; *************** function ___flmul *****************
  3472 ;; Defined at:
  3473 ;;		line 8 in file "C:\Program Files (x86)\Microchip\xc8\v1.45\sources\common\sprcmul.c"
  3474 ;; Parameters:    Size  Location     Type
  3475 ;;  b               4   14[BANK0 ] void 
  3476 ;;  a               4   18[BANK0 ] void 
  3477 ;; Auto vars:     Size  Location     Type
  3478 ;;  prod            4   33[BANK0 ] struct .
  3479 ;;  grs             4   27[BANK0 ] unsigned long 
  3480 ;;  temp            2   37[BANK0 ] struct .
  3481 ;;  bexp            1   32[BANK0 ] unsigned char 
  3482 ;;  aexp            1   31[BANK0 ] unsigned char 
  3483 ;;  sign            1   26[BANK0 ] unsigned char 
  3484 ;; Return value:  Size  Location     Type
  3485 ;;                  4   14[BANK0 ] unsigned char 
  3486 ;; Registers used:
  3487 ;;		wreg, status,2, status,0, prodl, prodh
  3488 ;; Tracked objects:
  3489 ;;		On entry : 0/0
  3490 ;;		On exit  : 0/0
  3491 ;;		Unchanged: 0/0
  3492 ;; Data sizes:     COMRAM   BANK0   BANK1   BANK2   BANK3   BANK4   BANK5   BANK6   BANK7   BANK8   BANK9  BANK10  BANK1
      +1  BANK12  BANK13  BANK14  BANK15
  3493 ;;      Params:         0       8       0       0       0       0       0       0       0       0       0       0       
      +0       0       0       0       0
  3494 ;;      Locals:         0      13       0       0       0       0       0       0       0       0       0       0       
      +0       0       0       0       0
  3495 ;;      Temps:          0       4       0       0       0       0       0       0       0       0       0       0       
      +0       0       0       0       0
  3496 ;;      Totals:         0      25       0       0       0       0       0       0       0       0       0       0       
      +0       0       0       0       0
  3497 ;;Total ram usage:       25 bytes
  3498 ;; Hardware stack levels used:    1
  3499 ;; Hardware stack levels required when called:    2
  3500 ;; This function calls:
  3501 ;;		Nothing
  3502 ;; This function is called by:
  3503 ;;		_Control_up
  3504 ;;		_Control_down
  3505 ;;		_main
  3506 ;;		_controle_vb
  3507 ;; This function uses a non-reentrant model
  3508 ;;
  3509                           
  3510                           	psect	text10
  3511  0013D4                     __ptext10:
  3512                           	opt stack 0
  3513  0013D4                     ___flmul:
  3514                           	opt stack 28
  3515                           
  3516                           ; BSR set to: 0
  3517                           ;incstack = 0
  3518  0013D4  0100               	movlb	0	; () banked
  3519  0013D6  5171               	movf	(___flmul@b+3)& (0+255),w,b
  3520  0013D8  0B80               	andlw	128
  3521  0013DA  6F7A               	movwf	___flmul@sign& (0+255),b
  3522  0013DC  5171               	movf	(___flmul@b+3)& (0+255),w,b
  3523  0013DE  2571               	addwf	(___flmul@b+3)& (0+255),w,b
  3524  0013E0  6F80               	movwf	___flmul@bexp& (0+255),b
  3525                           
  3526                           ; BSR set to: 0
  3527  0013E2  BF70               	btfsc	(___flmul@b+2)& (0+255),7,b
  3528                           
  3529                           ; BSR set to: 0
  3530  0013E4  8180               	bsf	___flmul@bexp& (0+255),0,b
  3531                           
  3532                           ; BSR set to: 0
  3533                           
  3534                           ; BSR set to: 0
  3535  0013E6  5180               	movf	___flmul@bexp& (0+255),w,b
  3536  0013E8  B4D8               	btfsc	status,2,c
  3537  0013EA  D00D               	goto	l1074
  3538                           
  3539                           ; BSR set to: 0
  3540  0013EC  2980               	incf	___flmul@bexp& (0+255),w,b
  3541  0013EE  A4D8               	btfss	status,2,c
  3542  0013F0  D008               	goto	l1075
  3543                           
  3544                           ; BSR set to: 0
  3545  0013F2  0E00               	movlw	0
  3546  0013F4  6F6E               	movwf	___flmul@b& (0+255),b
  3547  0013F6  0E00               	movlw	0
  3548  0013F8  6F6F               	movwf	(___flmul@b+1)& (0+255),b
  3549  0013FA  0E00               	movlw	0
  3550  0013FC  6F70               	movwf	(___flmul@b+2)& (0+255),b
  3551  0013FE  0E00               	movlw	0
  3552  001400  6F71               	movwf	(___flmul@b+3)& (0+255),b
  3553  001402                     l1075:
  3554                           
  3555                           ; BSR set to: 0
  3556                           
  3557                           ; BSR set to: 0
  3558  001402  8F70               	bsf	(___flmul@b+2)& (0+255),7,b
  3559  001404  D008               	goto	l1076
  3560  001406                     l1074:
  3561                           
  3562                           ; BSR set to: 0
  3563                           
  3564                           ; BSR set to: 0
  3565  001406  0E00               	movlw	0
  3566  001408  6F6E               	movwf	___flmul@b& (0+255),b
  3567  00140A  0E00               	movlw	0
  3568  00140C  6F6F               	movwf	(___flmul@b+1)& (0+255),b
  3569  00140E  0E00               	movlw	0
  3570  001410  6F70               	movwf	(___flmul@b+2)& (0+255),b
  3571  001412  0E00               	movlw	0
  3572  001414  6F71               	movwf	(___flmul@b+3)& (0+255),b
  3573  001416                     l1076:
  3574                           
  3575                           ; BSR set to: 0
  3576                           
  3577                           ; BSR set to: 0
  3578  001416  5175               	movf	(___flmul@a+3)& (0+255),w,b
  3579  001418  0B80               	andlw	128
  3580  00141A  1B7A               	xorwf	___flmul@sign& (0+255),f,b
  3581                           
  3582                           ; BSR set to: 0
  3583  00141C  5175               	movf	(___flmul@a+3)& (0+255),w,b
  3584  00141E  2575               	addwf	(___flmul@a+3)& (0+255),w,b
  3585  001420  6F7F               	movwf	___flmul@aexp& (0+255),b
  3586                           
  3587                           ; BSR set to: 0
  3588  001422  BF74               	btfsc	(___flmul@a+2)& (0+255),7,b
  3589                           
  3590                           ; BSR set to: 0
  3591  001424  817F               	bsf	___flmul@aexp& (0+255),0,b
  3592                           
  3593                           ; BSR set to: 0
  3594                           
  3595                           ; BSR set to: 0
  3596  001426  517F               	movf	___flmul@aexp& (0+255),w,b
  3597  001428  B4D8               	btfsc	status,2,c
  3598  00142A  D00D               	goto	l1078
  3599                           
  3600                           ; BSR set to: 0
  3601  00142C  297F               	incf	___flmul@aexp& (0+255),w,b
  3602  00142E  A4D8               	btfss	status,2,c
  3603  001430  D008               	goto	l1079
  3604                           
  3605                           ; BSR set to: 0
  3606  001432  0E00               	movlw	0
  3607  001434  6F72               	movwf	___flmul@a& (0+255),b
  3608  001436  0E00               	movlw	0
  3609  001438  6F73               	movwf	(___flmul@a+1)& (0+255),b
  3610  00143A  0E00               	movlw	0
  3611  00143C  6F74               	movwf	(___flmul@a+2)& (0+255),b
  3612  00143E  0E00               	movlw	0
  3613  001440  6F75               	movwf	(___flmul@a+3)& (0+255),b
  3614  001442                     l1079:
  3615                           
  3616                           ; BSR set to: 0
  3617                           
  3618                           ; BSR set to: 0
  3619  001442  8F74               	bsf	(___flmul@a+2)& (0+255),7,b
  3620  001444  D008               	goto	l1080
  3621  001446                     l1078:
  3622                           
  3623                           ; BSR set to: 0
  3624                           
  3625                           ; BSR set to: 0
  3626  001446  0E00               	movlw	0
  3627  001448  6F72               	movwf	___flmul@a& (0+255),b
  3628  00144A  0E00               	movlw	0
  3629  00144C  6F73               	movwf	(___flmul@a+1)& (0+255),b
  3630  00144E  0E00               	movlw	0
  3631  001450  6F74               	movwf	(___flmul@a+2)& (0+255),b
  3632  001452  0E00               	movlw	0
  3633  001454  6F75               	movwf	(___flmul@a+3)& (0+255),b
  3634  001456                     l1080:
  3635                           
  3636                           ; BSR set to: 0
  3637  001456  517F               	movf	___flmul@aexp& (0+255),w,b
  3638  001458  B4D8               	btfsc	status,2,c
  3639  00145A  D003               	goto	u2500
  3640                           
  3641                           ; BSR set to: 0
  3642  00145C  5180               	movf	___flmul@bexp& (0+255),w,b
  3643  00145E  A4D8               	btfss	status,2,c
  3644  001460  D009               	goto	l1081
  3645  001462                     u2500:
  3646                           
  3647                           ; BSR set to: 0
  3648                           
  3649                           ; BSR set to: 0
  3650  001462  0E00               	movlw	0
  3651  001464  6F6E               	movwf	?___flmul& (0+255),b
  3652  001466  0E00               	movlw	0
  3653  001468  6F6F               	movwf	(?___flmul+1)& (0+255),b
  3654  00146A  0E00               	movlw	0
  3655  00146C  6F70               	movwf	(?___flmul+2)& (0+255),b
  3656  00146E  0E00               	movlw	0
  3657  001470  6F71               	movwf	(?___flmul+3)& (0+255),b
  3658                           
  3659                           ; BSR set to: 0
  3660  001472  0012               	return	
  3661  001474                     l1081:
  3662                           
  3663                           ; BSR set to: 0
  3664                           
  3665                           ; BSR set to: 0
  3666  001474  5174               	movf	(___flmul@a+2)& (0+255),w,b
  3667  001476  036E               	mulwf	___flmul@b& (0+255),b
  3668  001478  CFF3 F085          	movff	prodl,___flmul@temp
  3669  00147C  CFF4 F086          	movff	prodh,___flmul@temp+1
  3670                           
  3671                           ; BSR set to: 0
  3672  001480  5185               	movf	___flmul@temp& (0+255),w,b
  3673  001482  6F7B               	movwf	___flmul@grs& (0+255),b
  3674  001484  6B7C               	clrf	(___flmul@grs+1)& (0+255),b
  3675  001486  6B7D               	clrf	(___flmul@grs+2)& (0+255),b
  3676  001488  6B7E               	clrf	(___flmul@grs+3)& (0+255),b
  3677                           
  3678                           ; BSR set to: 0
  3679  00148A  5186               	movf	(___flmul@temp+1)& (0+255),w,b
  3680  00148C  6F81               	movwf	___flmul@prod& (0+255),b
  3681  00148E  6B82               	clrf	(___flmul@prod+1)& (0+255),b
  3682  001490  6B83               	clrf	(___flmul@prod+2)& (0+255),b
  3683  001492  6B84               	clrf	(___flmul@prod+3)& (0+255),b
  3684  001494  5173               	movf	(___flmul@a+1)& (0+255),w,b
  3685  001496  036F               	mulwf	(___flmul@b+1)& (0+255),b
  3686  001498  CFF3 F085          	movff	prodl,___flmul@temp
  3687  00149C  CFF4 F086          	movff	prodh,___flmul@temp+1
  3688                           
  3689                           ; BSR set to: 0
  3690  0014A0  5185               	movf	___flmul@temp& (0+255),w,b
  3691  0014A2  277B               	addwf	___flmul@grs& (0+255),f,b
  3692  0014A4  0E00               	movlw	0
  3693  0014A6  237C               	addwfc	(___flmul@grs+1)& (0+255),f,b
  3694  0014A8  237D               	addwfc	(___flmul@grs+2)& (0+255),f,b
  3695  0014AA  237E               	addwfc	(___flmul@grs+3)& (0+255),f,b
  3696                           
  3697                           ; BSR set to: 0
  3698  0014AC  5186               	movf	(___flmul@temp+1)& (0+255),w,b
  3699  0014AE  2781               	addwf	___flmul@prod& (0+255),f,b
  3700  0014B0  0E00               	movlw	0
  3701  0014B2  2382               	addwfc	(___flmul@prod+1)& (0+255),f,b
  3702  0014B4  2383               	addwfc	(___flmul@prod+2)& (0+255),f,b
  3703  0014B6  2384               	addwfc	(___flmul@prod+3)& (0+255),f,b
  3704  0014B8  5172               	movf	___flmul@a& (0+255),w,b
  3705  0014BA  0370               	mulwf	(___flmul@b+2)& (0+255),b
  3706  0014BC  CFF3 F085          	movff	prodl,___flmul@temp
  3707  0014C0  CFF4 F086          	movff	prodh,___flmul@temp+1
  3708                           
  3709                           ; BSR set to: 0
  3710  0014C4  5185               	movf	___flmul@temp& (0+255),w,b
  3711  0014C6  277B               	addwf	___flmul@grs& (0+255),f,b
  3712  0014C8  0E00               	movlw	0
  3713  0014CA  237C               	addwfc	(___flmul@grs+1)& (0+255),f,b
  3714  0014CC  237D               	addwfc	(___flmul@grs+2)& (0+255),f,b
  3715  0014CE  237E               	addwfc	(___flmul@grs+3)& (0+255),f,b
  3716                           
  3717                           ; BSR set to: 0
  3718  0014D0  5186               	movf	(___flmul@temp+1)& (0+255),w,b
  3719  0014D2  2781               	addwf	___flmul@prod& (0+255),f,b
  3720  0014D4  0E00               	movlw	0
  3721  0014D6  2382               	addwfc	(___flmul@prod+1)& (0+255),f,b
  3722  0014D8  2383               	addwfc	(___flmul@prod+2)& (0+255),f,b
  3723  0014DA  2384               	addwfc	(___flmul@prod+3)& (0+255),f,b
  3724                           
  3725                           ; BSR set to: 0
  3726  0014DC  C07D  F07E         	movff	___flmul@grs+2,___flmul@grs+3
  3727  0014E0  C07C  F07D         	movff	___flmul@grs+1,___flmul@grs+2
  3728  0014E4  C07B  F07C         	movff	___flmul@grs,___flmul@grs+1
  3729  0014E8  6B7B               	clrf	___flmul@grs& (0+255),b
  3730                           
  3731                           ; BSR set to: 0
  3732  0014EA  5172               	movf	___flmul@a& (0+255),w,b
  3733  0014EC  036F               	mulwf	(___flmul@b+1)& (0+255),b
  3734  0014EE  CFF3 F085          	movff	prodl,___flmul@temp
  3735  0014F2  CFF4 F086          	movff	prodh,___flmul@temp+1
  3736                           
  3737                           ; BSR set to: 0
  3738  0014F6  5185               	movf	___flmul@temp& (0+255),w,b
  3739  0014F8  277B               	addwf	___flmul@grs& (0+255),f,b
  3740  0014FA  5186               	movf	(___flmul@temp+1)& (0+255),w,b
  3741  0014FC  237C               	addwfc	(___flmul@grs+1)& (0+255),f,b
  3742  0014FE  0E00               	movlw	0
  3743  001500  237D               	addwfc	(___flmul@grs+2)& (0+255),f,b
  3744  001502  0E00               	movlw	0
  3745  001504  237E               	addwfc	(___flmul@grs+3)& (0+255),f,b
  3746                           
  3747                           ; BSR set to: 0
  3748  001506  5173               	movf	(___flmul@a+1)& (0+255),w,b
  3749  001508  036E               	mulwf	___flmul@b& (0+255),b
  3750  00150A  CFF3 F085          	movff	prodl,___flmul@temp
  3751  00150E  CFF4 F086          	movff	prodh,___flmul@temp+1
  3752                           
  3753                           ; BSR set to: 0
  3754  001512  5185               	movf	___flmul@temp& (0+255),w,b
  3755  001514  277B               	addwf	___flmul@grs& (0+255),f,b
  3756  001516  5186               	movf	(___flmul@temp+1)& (0+255),w,b
  3757  001518  237C               	addwfc	(___flmul@grs+1)& (0+255),f,b
  3758  00151A  0E00               	movlw	0
  3759  00151C  237D               	addwfc	(___flmul@grs+2)& (0+255),f,b
  3760  00151E  0E00               	movlw	0
  3761  001520  237E               	addwfc	(___flmul@grs+3)& (0+255),f,b
  3762                           
  3763                           ; BSR set to: 0
  3764  001522  C07D  F07E         	movff	___flmul@grs+2,___flmul@grs+3
  3765  001526  C07C  F07D         	movff	___flmul@grs+1,___flmul@grs+2
  3766  00152A  C07B  F07C         	movff	___flmul@grs,___flmul@grs+1
  3767  00152E  6B7B               	clrf	___flmul@grs& (0+255),b
  3768  001530  5172               	movf	___flmul@a& (0+255),w,b
  3769  001532  036E               	mulwf	___flmul@b& (0+255),b
  3770  001534  CFF3 F085          	movff	prodl,___flmul@temp
  3771  001538  CFF4 F086          	movff	prodh,___flmul@temp+1
  3772                           
  3773                           ; BSR set to: 0
  3774  00153C  5185               	movf	___flmul@temp& (0+255),w,b
  3775  00153E  277B               	addwf	___flmul@grs& (0+255),f,b
  3776  001540  5186               	movf	(___flmul@temp+1)& (0+255),w,b
  3777  001542  237C               	addwfc	(___flmul@grs+1)& (0+255),f,b
  3778  001544  0E00               	movlw	0
  3779  001546  237D               	addwfc	(___flmul@grs+2)& (0+255),f,b
  3780  001548  0E00               	movlw	0
  3781  00154A  237E               	addwfc	(___flmul@grs+3)& (0+255),f,b
  3782                           
  3783                           ; BSR set to: 0
  3784  00154C  5174               	movf	(___flmul@a+2)& (0+255),w,b
  3785  00154E  036F               	mulwf	(___flmul@b+1)& (0+255),b
  3786  001550  CFF3 F085          	movff	prodl,___flmul@temp
  3787  001554  CFF4 F086          	movff	prodh,___flmul@temp+1
  3788  001558  5185               	movf	___flmul@temp& (0+255),w,b
  3789  00155A  2781               	addwf	___flmul@prod& (0+255),f,b
  3790  00155C  5186               	movf	(___flmul@temp+1)& (0+255),w,b
  3791  00155E  2382               	addwfc	(___flmul@prod+1)& (0+255),f,b
  3792  001560  0E00               	movlw	0
  3793  001562  2383               	addwfc	(___flmul@prod+2)& (0+255),f,b
  3794  001564  0E00               	movlw	0
  3795  001566  2384               	addwfc	(___flmul@prod+3)& (0+255),f,b
  3796                           
  3797                           ; BSR set to: 0
  3798  001568  5173               	movf	(___flmul@a+1)& (0+255),w,b
  3799  00156A  0370               	mulwf	(___flmul@b+2)& (0+255),b
  3800  00156C  CFF3 F085          	movff	prodl,___flmul@temp
  3801  001570  CFF4 F086          	movff	prodh,___flmul@temp+1
  3802                           
  3803                           ; BSR set to: 0
  3804  001574  5185               	movf	___flmul@temp& (0+255),w,b
  3805  001576  2781               	addwf	___flmul@prod& (0+255),f,b
  3806  001578  5186               	movf	(___flmul@temp+1)& (0+255),w,b
  3807  00157A  2382               	addwfc	(___flmul@prod+1)& (0+255),f,b
  3808  00157C  0E00               	movlw	0
  3809  00157E  2383               	addwfc	(___flmul@prod+2)& (0+255),f,b
  3810  001580  0E00               	movlw	0
  3811  001582  2384               	addwfc	(___flmul@prod+3)& (0+255),f,b
  3812  001584  5174               	movf	(___flmul@a+2)& (0+255),w,b
  3813  001586  0370               	mulwf	(___flmul@b+2)& (0+255),b
  3814  001588  CFF3 F085          	movff	prodl,___flmul@temp
  3815  00158C  CFF4 F086          	movff	prodh,___flmul@temp+1
  3816                           
  3817                           ; BSR set to: 0
  3818  001590  5185               	movf	___flmul@temp& (0+255),w,b
  3819  001592  6F76               	movwf	??___flmul& (0+255),b
  3820  001594  5186               	movf	(___flmul@temp+1)& (0+255),w,b
  3821  001596  6F77               	movwf	(??___flmul+1)& (0+255),b
  3822  001598  6B78               	clrf	(??___flmul+2)& (0+255),b
  3823  00159A  6B79               	clrf	(??___flmul+3)& (0+255),b
  3824  00159C  C078  F079         	movff	??___flmul+2,??___flmul+3
  3825  0015A0  C077  F078         	movff	??___flmul+1,??___flmul+2
  3826  0015A4  C076  F077         	movff	??___flmul,??___flmul+1
  3827  0015A8  6B76               	clrf	??___flmul& (0+255),b
  3828  0015AA  5176               	movf	??___flmul& (0+255),w,b
  3829  0015AC  2781               	addwf	___flmul@prod& (0+255),f,b
  3830  0015AE  5177               	movf	(??___flmul+1)& (0+255),w,b
  3831  0015B0  2382               	addwfc	(___flmul@prod+1)& (0+255),f,b
  3832  0015B2  5178               	movf	(??___flmul+2)& (0+255),w,b
  3833  0015B4  2383               	addwfc	(___flmul@prod+2)& (0+255),f,b
  3834  0015B6  5179               	movf	(??___flmul+3)& (0+255),w,b
  3835  0015B8  2384               	addwfc	(___flmul@prod+3)& (0+255),f,b
  3836                           
  3837                           ; BSR set to: 0
  3838  0015BA  C07B  F076         	movff	___flmul@grs,??___flmul
  3839  0015BE  C07C  F077         	movff	___flmul@grs+1,??___flmul+1
  3840  0015C2  C07D  F078         	movff	___flmul@grs+2,??___flmul+2
  3841  0015C6  C07E  F079         	movff	___flmul@grs+3,??___flmul+3
  3842  0015CA  0E19               	movlw	25
  3843  0015CC  D005               	goto	u2510
  3844  0015CE                     u2515:
  3845  0015CE  90D8               	bcf	status,0,c
  3846  0015D0  3379               	rrcf	(??___flmul+3)& (0+255),f,b
  3847  0015D2  3378               	rrcf	(??___flmul+2)& (0+255),f,b
  3848  0015D4  3377               	rrcf	(??___flmul+1)& (0+255),f,b
  3849  0015D6  3376               	rrcf	??___flmul& (0+255),f,b
  3850  0015D8                     u2510:
  3851  0015D8  2EE8               	decfsz	wreg,f,c
  3852  0015DA  D7F9               	goto	u2515
  3853  0015DC  5176               	movf	??___flmul& (0+255),w,b
  3854  0015DE  2781               	addwf	___flmul@prod& (0+255),f,b
  3855  0015E0  5177               	movf	(??___flmul+1)& (0+255),w,b
  3856  0015E2  2382               	addwfc	(___flmul@prod+1)& (0+255),f,b
  3857  0015E4  5178               	movf	(??___flmul+2)& (0+255),w,b
  3858  0015E6  2383               	addwfc	(___flmul@prod+2)& (0+255),f,b
  3859  0015E8  5179               	movf	(??___flmul+3)& (0+255),w,b
  3860  0015EA  2384               	addwfc	(___flmul@prod+3)& (0+255),f,b
  3861                           
  3862                           ; BSR set to: 0
  3863  0015EC  C07D  F07E         	movff	___flmul@grs+2,___flmul@grs+3
  3864  0015F0  C07C  F07D         	movff	___flmul@grs+1,___flmul@grs+2
  3865  0015F4  C07B  F07C         	movff	___flmul@grs,___flmul@grs+1
  3866  0015F8  6B7B               	clrf	___flmul@grs& (0+255),b
  3867                           
  3868                           ; BSR set to: 0
  3869  0015FA  517F               	movf	___flmul@aexp& (0+255),w,b
  3870  0015FC  C080  F076         	movff	___flmul@bexp,??___flmul
  3871  001600  6B77               	clrf	(??___flmul+1)& (0+255),b
  3872  001602  2776               	addwf	??___flmul& (0+255),f,b
  3873  001604  0E00               	movlw	0
  3874  001606  2377               	addwfc	(??___flmul+1)& (0+255),f,b
  3875  001608  0E82               	movlw	130
  3876  00160A  2576               	addwf	??___flmul& (0+255),w,b
  3877  00160C  6F85               	movwf	___flmul@temp& (0+255),b
  3878  00160E  0EFF               	movlw	255
  3879  001610  2177               	addwfc	(??___flmul+1)& (0+255),w,b
  3880  001612  6F86               	movwf	(___flmul@temp+1)& (0+255),b
  3881  001614  D00F               	goto	l1085
  3882  001616                     
  3883                           ; BSR set to: 0
  3884                           
  3885                           ; BSR set to: 0
  3886  001616  90D8               	bcf	status,0,c
  3887  001618  3781               	rlcf	___flmul@prod& (0+255),f,b
  3888  00161A  3782               	rlcf	(___flmul@prod+1)& (0+255),f,b
  3889  00161C  3783               	rlcf	(___flmul@prod+2)& (0+255),f,b
  3890  00161E  3784               	rlcf	(___flmul@prod+3)& (0+255),f,b
  3891                           
  3892                           ; BSR set to: 0
  3893  001620  BF7E               	btfsc	(___flmul@grs+3)& (0+255),7,b
  3894                           
  3895                           ; BSR set to: 0
  3896  001622  8181               	bsf	___flmul@prod& (0+255),0,b
  3897                           
  3898                           ; BSR set to: 0
  3899  001624  90D8               	bcf	status,0,c
  3900  001626  377B               	rlcf	___flmul@grs& (0+255),f,b
  3901  001628  377C               	rlcf	(___flmul@grs+1)& (0+255),f,b
  3902  00162A  377D               	rlcf	(___flmul@grs+2)& (0+255),f,b
  3903  00162C  377E               	rlcf	(___flmul@grs+3)& (0+255),f,b
  3904  00162E  0785               	decf	___flmul@temp& (0+255),f,b
  3905  001630  A0D8               	btfss	status,0,c
  3906  001632  0786               	decf	(___flmul@temp+1)& (0+255),f,b
  3907  001634                     l1085:
  3908                           
  3909                           ; BSR set to: 0
  3910                           
  3911                           ; BSR set to: 0
  3912  001634  AF83               	btfss	(___flmul@prod+2)& (0+255),7,b
  3913  001636  D7EF               	goto	l1086
  3914                           
  3915                           ; BSR set to: 0
  3916                           
  3917                           ; BSR set to: 0
  3918  001638  0E00               	movlw	0
  3919  00163A  6F7F               	movwf	___flmul@aexp& (0+255),b
  3920                           
  3921                           ; BSR set to: 0
  3922  00163C  AF7E               	btfss	(___flmul@grs+3)& (0+255),7,b
  3923  00163E  D016               	goto	l1092
  3924                           
  3925                           ; BSR set to: 0
  3926  001640  0EFF               	movlw	255
  3927  001642  157B               	andwf	___flmul@grs& (0+255),w,b
  3928  001644  6F76               	movwf	??___flmul& (0+255),b
  3929  001646  0EFF               	movlw	255
  3930  001648  157C               	andwf	(___flmul@grs+1)& (0+255),w,b
  3931  00164A  6F77               	movwf	(??___flmul+1)& (0+255),b
  3932  00164C  0EFF               	movlw	255
  3933  00164E  157D               	andwf	(___flmul@grs+2)& (0+255),w,b
  3934  001650  6F78               	movwf	(??___flmul+2)& (0+255),b
  3935  001652  0E7F               	movlw	127
  3936  001654  157E               	andwf	(___flmul@grs+3)& (0+255),w,b
  3937  001656  6F79               	movwf	(??___flmul+3)& (0+255),b
  3938  001658  5176               	movf	??___flmul& (0+255),w,b
  3939  00165A  1177               	iorwf	(??___flmul+1)& (0+255),w,b
  3940  00165C  1178               	iorwf	(??___flmul+2)& (0+255),w,b
  3941  00165E  1179               	iorwf	(??___flmul+3)& (0+255),w,b
  3942  001660  A4D8               	btfss	status,2,c
  3943  001662  D002               	goto	u2560
  3944                           
  3945                           ; BSR set to: 0
  3946                           
  3947                           ; BSR set to: 0
  3948  001664  A181               	btfss	___flmul@prod& (0+255),0,b
  3949  001666  D002               	goto	l1092
  3950  001668                     u2560:
  3951                           
  3952                           ; BSR set to: 0
  3953  001668  0E01               	movlw	1
  3954  00166A  6F7F               	movwf	___flmul@aexp& (0+255),b
  3955  00166C                     l1092:
  3956                           
  3957                           ; BSR set to: 0
  3958                           
  3959                           ; BSR set to: 0
  3960                           
  3961                           ; BSR set to: 0
  3962  00166C  517F               	movf	___flmul@aexp& (0+255),w,b
  3963  00166E  B4D8               	btfsc	status,2,c
  3964  001670  D01F               	goto	l1094
  3965                           
  3966                           ; BSR set to: 0
  3967  001672  0E01               	movlw	1
  3968  001674  2781               	addwf	___flmul@prod& (0+255),f,b
  3969  001676  0E00               	movlw	0
  3970  001678  2382               	addwfc	(___flmul@prod+1)& (0+255),f,b
  3971  00167A  2383               	addwfc	(___flmul@prod+2)& (0+255),f,b
  3972  00167C  2384               	addwfc	(___flmul@prod+3)& (0+255),f,b
  3973                           
  3974                           ; BSR set to: 0
  3975  00167E  A184               	btfss	(___flmul@prod+3)& (0+255),0,b
  3976  001680  D017               	goto	l1094
  3977                           
  3978                           ; BSR set to: 0
  3979  001682  C081  F076         	movff	___flmul@prod,??___flmul
  3980  001686  C082  F077         	movff	___flmul@prod+1,??___flmul+1
  3981  00168A  C083  F078         	movff	___flmul@prod+2,??___flmul+2
  3982  00168E  C084  F079         	movff	___flmul@prod+3,??___flmul+3
  3983  001692  3579               	rlcf	(??___flmul+3)& (0+255),w,b
  3984  001694  3379               	rrcf	(??___flmul+3)& (0+255),f,b
  3985  001696  3378               	rrcf	(??___flmul+2)& (0+255),f,b
  3986  001698  3377               	rrcf	(??___flmul+1)& (0+255),f,b
  3987  00169A  3376               	rrcf	??___flmul& (0+255),f,b
  3988  00169C  C076  F081         	movff	??___flmul,___flmul@prod
  3989  0016A0  C077  F082         	movff	??___flmul+1,___flmul@prod+1
  3990  0016A4  C078  F083         	movff	??___flmul+2,___flmul@prod+2
  3991  0016A8  C079  F084         	movff	??___flmul+3,___flmul@prod+3
  3992                           
  3993                           ; BSR set to: 0
  3994  0016AC  4B85               	infsnz	___flmul@temp& (0+255),f,b
  3995  0016AE  2B86               	incf	(___flmul@temp+1)& (0+255),f,b
  3996  0016B0                     l1094:
  3997                           
  3998                           ; BSR set to: 0
  3999                           
  4000                           ; BSR set to: 0
  4001                           
  4002                           ; BSR set to: 0
  4003  0016B0  BF86               	btfsc	(___flmul@temp+1)& (0+255),7,b
  4004  0016B2  D00D               	goto	l1095
  4005  0016B4  5186               	movf	(___flmul@temp+1)& (0+255),w,b
  4006  0016B6  E103               	bnz	u2590
  4007  0016B8  2985               	incf	___flmul@temp& (0+255),w,b
  4008  0016BA  A0D8               	btfss	status,0,c
  4009  0016BC  D008               	goto	l1095
  4010  0016BE                     u2590:
  4011                           
  4012                           ; BSR set to: 0
  4013  0016BE  0E00               	movlw	0
  4014  0016C0  6F81               	movwf	___flmul@prod& (0+255),b
  4015  0016C2  0E00               	movlw	0
  4016  0016C4  6F82               	movwf	(___flmul@prod+1)& (0+255),b
  4017  0016C6  0E80               	movlw	128
  4018  0016C8  6F83               	movwf	(___flmul@prod+2)& (0+255),b
  4019  0016CA  0E7F               	movlw	127
  4020  0016CC  D020               	goto	L3
  4021  0016CE                     l1095:
  4022                           
  4023                           ; BSR set to: 0
  4024                           
  4025                           ; BSR set to: 0
  4026  0016CE  BF86               	btfsc	(___flmul@temp+1)& (0+255),7,b
  4027  0016D0  D005               	goto	u2600
  4028  0016D2  5186               	movf	(___flmul@temp+1)& (0+255),w,b
  4029  0016D4  E10E               	bnz	l1097
  4030  0016D6  0585               	decf	___flmul@temp& (0+255),w,b
  4031  0016D8  B0D8               	btfsc	status,0,c
  4032  0016DA  D00B               	goto	l1097
  4033  0016DC                     u2600:
  4034                           
  4035                           ; BSR set to: 0
  4036  0016DC  0E00               	movlw	0
  4037  0016DE  6F81               	movwf	___flmul@prod& (0+255),b
  4038  0016E0  0E00               	movlw	0
  4039  0016E2  6F82               	movwf	(___flmul@prod+1)& (0+255),b
  4040  0016E4  0E00               	movlw	0
  4041  0016E6  6F83               	movwf	(___flmul@prod+2)& (0+255),b
  4042  0016E8  0E00               	movlw	0
  4043  0016EA  6F84               	movwf	(___flmul@prod+3)& (0+255),b
  4044  0016EC  0E00               	movlw	0
  4045  0016EE  6F7A               	movwf	___flmul@sign& (0+255),b
  4046  0016F0  D00F               	goto	l1098
  4047  0016F2                     l1097:
  4048                           
  4049                           ; BSR set to: 0
  4050  0016F2  C085  F080         	movff	___flmul@temp,___flmul@bexp
  4051                           
  4052                           ; BSR set to: 0
  4053  0016F6  0EFF               	movlw	255
  4054  0016F8  1781               	andwf	___flmul@prod& (0+255),f,b
  4055  0016FA  0EFF               	movlw	255
  4056  0016FC  1782               	andwf	(___flmul@prod+1)& (0+255),f,b
  4057  0016FE  0E7F               	movlw	127
  4058  001700  1783               	andwf	(___flmul@prod+2)& (0+255),f,b
  4059  001702  0E00               	movlw	0
  4060  001704  1784               	andwf	(___flmul@prod+3)& (0+255),f,b
  4061                           
  4062                           ; BSR set to: 0
  4063  001706  B180               	btfsc	___flmul@bexp& (0+255),0,b
  4064                           
  4065                           ; BSR set to: 0
  4066  001708  8F83               	bsf	(___flmul@prod+2)& (0+255),7,b
  4067                           
  4068                           ; BSR set to: 0
  4069                           
  4070                           ; BSR set to: 0
  4071  00170A  90D8               	bcf	status,0,c
  4072  00170C  3180               	rrcf	___flmul@bexp& (0+255),w,b
  4073  00170E                     L3:
  4074  00170E  6F84               	movwf	(___flmul@prod+3)& (0+255),b
  4075  001710                     l1098:
  4076                           
  4077                           ; BSR set to: 0
  4078                           
  4079                           ; BSR set to: 0
  4080                           
  4081                           ; BSR set to: 0
  4082  001710  517A               	movf	___flmul@sign& (0+255),w,b
  4083  001712  1384               	iorwf	(___flmul@prod+3)& (0+255),f,b
  4084                           
  4085                           ; BSR set to: 0
  4086  001714  C081  F06E         	movff	___flmul@prod,?___flmul
  4087  001718  C082  F06F         	movff	___flmul@prod+1,?___flmul+1
  4088  00171C  C083  F070         	movff	___flmul@prod+2,?___flmul+2
  4089  001720  C084  F071         	movff	___flmul@prod+3,?___flmul+3
  4090  001724  0012               	return	
  4091  001726                     __end_of___flmul:
  4092                           	opt stack 0
  4093                           tblptru	equ	0xFF8
  4094                           tblptrh	equ	0xFF7
  4095                           tblptrl	equ	0xFF6
  4096                           tablat	equ	0xFF5
  4097                           prodh	equ	0xFF4
  4098                           prodl	equ	0xFF3
  4099                           intcon	equ	0xFF2
  4100                           postinc0	equ	0xFEE
  4101                           wreg	equ	0xFE8
  4102                           postdec1	equ	0xFE5
  4103                           fsr1l	equ	0xFE1
  4104                           postinc2	equ	0xFDE
  4105                           postdec2	equ	0xFDD
  4106                           fsr2h	equ	0xFDA
  4107                           fsr2l	equ	0xFD9
  4108                           status	equ	0xFD8
  4109                           
  4110 ;; *************** function ___flge *****************
  4111 ;; Defined at:
  4112 ;;		line 4 in file "C:\Program Files (x86)\Microchip\xc8\v1.45\sources\common\flge.c"
  4113 ;; Parameters:    Size  Location     Type
  4114 ;;  ff1             4    0[BANK0 ] unsigned char 
  4115 ;;  ff2             4    4[BANK0 ] unsigned char 
  4116 ;; Auto vars:     Size  Location     Type
  4117 ;;		None
  4118 ;; Return value:  Size  Location     Type
  4119 ;;		None               void
  4120 ;; Registers used:
  4121 ;;		wreg, status,2, status,0
  4122 ;; Tracked objects:
  4123 ;;		On entry : 0/0
  4124 ;;		On exit  : 0/0
  4125 ;;		Unchanged: 0/0
  4126 ;; Data sizes:     COMRAM   BANK0   BANK1   BANK2   BANK3   BANK4   BANK5   BANK6   BANK7   BANK8   BANK9  BANK10  BANK1
      +1  BANK12  BANK13  BANK14  BANK15
  4127 ;;      Params:         0       8       0       0       0       0       0       0       0       0       0       0       
      +0       0       0       0       0
  4128 ;;      Locals:         0       0       0       0       0       0       0       0       0       0       0       0       
      +0       0       0       0       0
  4129 ;;      Temps:          0       4       0       0       0       0       0       0       0       0       0       0       
      +0       0       0       0       0
  4130 ;;      Totals:         0      12       0       0       0       0       0       0       0       0       0       0       
      +0       0       0       0       0
  4131 ;;Total ram usage:       12 bytes
  4132 ;; Hardware stack levels used:    1
  4133 ;; Hardware stack levels required when called:    2
  4134 ;; This function calls:
  4135 ;;		Nothing
  4136 ;; This function is called by:
  4137 ;;		_Control_up
  4138 ;;		_Control_down
  4139 ;;		_main
  4140 ;;		_controle_vb
  4141 ;; This function uses a non-reentrant model
  4142 ;;
  4143                           
  4144                           	psect	text11
  4145  002A06                     __ptext11:
  4146                           	opt stack 0
  4147  002A06                     ___flge:
  4148                           	opt stack 28
  4149                           
  4150                           ; BSR set to: 0
  4151                           ;incstack = 0
  4152  002A06  0E00               	movlw	0
  4153  002A08  0100               	movlb	0	; () banked
  4154  002A0A  1560               	andwf	___flge@ff1& (0+255),w,b
  4155  002A0C  6F68               	movwf	??___flge& (0+255),b
  4156  002A0E  0E00               	movlw	0
  4157  002A10  1561               	andwf	(___flge@ff1+1)& (0+255),w,b
  4158  002A12  6F69               	movwf	(??___flge+1)& (0+255),b
  4159  002A14  0E80               	movlw	128
  4160  002A16  1562               	andwf	(___flge@ff1+2)& (0+255),w,b
  4161  002A18  6F6A               	movwf	(??___flge+2)& (0+255),b
  4162  002A1A  0E7F               	movlw	127
  4163  002A1C  1563               	andwf	(___flge@ff1+3)& (0+255),w,b
  4164  002A1E  6F6B               	movwf	(??___flge+3)& (0+255),b
  4165  002A20  5168               	movf	??___flge& (0+255),w,b
  4166  002A22  1169               	iorwf	(??___flge+1)& (0+255),w,b
  4167  002A24  116A               	iorwf	(??___flge+2)& (0+255),w,b
  4168  002A26  116B               	iorwf	(??___flge+3)& (0+255),w,b
  4169  002A28  A4D8               	btfss	status,2,c
  4170  002A2A  D008               	goto	l754
  4171                           
  4172                           ; BSR set to: 0
  4173  002A2C  0E00               	movlw	0
  4174  002A2E  6F60               	movwf	___flge@ff1& (0+255),b
  4175  002A30  0E00               	movlw	0
  4176  002A32  6F61               	movwf	(___flge@ff1+1)& (0+255),b
  4177  002A34  0E00               	movlw	0
  4178  002A36  6F62               	movwf	(___flge@ff1+2)& (0+255),b
  4179  002A38  0E00               	movlw	0
  4180  002A3A  6F63               	movwf	(___flge@ff1+3)& (0+255),b
  4181  002A3C                     l754:
  4182                           
  4183                           ; BSR set to: 0
  4184                           
  4185                           ; BSR set to: 0
  4186  002A3C  0E00               	movlw	0
  4187  002A3E  1564               	andwf	___flge@ff2& (0+255),w,b
  4188  002A40  6F68               	movwf	??___flge& (0+255),b
  4189  002A42  0E00               	movlw	0
  4190  002A44  1565               	andwf	(___flge@ff2+1)& (0+255),w,b
  4191  002A46  6F69               	movwf	(??___flge+1)& (0+255),b
  4192  002A48  0E80               	movlw	128
  4193  002A4A  1566               	andwf	(___flge@ff2+2)& (0+255),w,b
  4194  002A4C  6F6A               	movwf	(??___flge+2)& (0+255),b
  4195  002A4E  0E7F               	movlw	127
  4196  002A50  1567               	andwf	(___flge@ff2+3)& (0+255),w,b
  4197  002A52  6F6B               	movwf	(??___flge+3)& (0+255),b
  4198  002A54  5168               	movf	??___flge& (0+255),w,b
  4199  002A56  1169               	iorwf	(??___flge+1)& (0+255),w,b
  4200  002A58  116A               	iorwf	(??___flge+2)& (0+255),w,b
  4201  002A5A  116B               	iorwf	(??___flge+3)& (0+255),w,b
  4202  002A5C  A4D8               	btfss	status,2,c
  4203  002A5E  D008               	goto	l755
  4204                           
  4205                           ; BSR set to: 0
  4206  002A60  0E00               	movlw	0
  4207  002A62  6F64               	movwf	___flge@ff2& (0+255),b
  4208  002A64  0E00               	movlw	0
  4209  002A66  6F65               	movwf	(___flge@ff2+1)& (0+255),b
  4210  002A68  0E00               	movlw	0
  4211  002A6A  6F66               	movwf	(___flge@ff2+2)& (0+255),b
  4212  002A6C  0E00               	movlw	0
  4213  002A6E  6F67               	movwf	(___flge@ff2+3)& (0+255),b
  4214  002A70                     l755:
  4215                           
  4216                           ; BSR set to: 0
  4217                           
  4218                           ; BSR set to: 0
  4219  002A70  AF63               	btfss	(___flge@ff1+3)& (0+255),7,b
  4220  002A72  D01D               	goto	l756
  4221                           
  4222                           ; BSR set to: 0
  4223  002A74  C060  F068         	movff	___flge@ff1,??___flge
  4224  002A78  C061  F069         	movff	___flge@ff1+1,??___flge+1
  4225  002A7C  C062  F06A         	movff	___flge@ff1+2,??___flge+2
  4226  002A80  C063  F06B         	movff	___flge@ff1+3,??___flge+3
  4227  002A84  1F68               	comf	??___flge& (0+255),f,b
  4228  002A86  1F69               	comf	(??___flge+1)& (0+255),f,b
  4229  002A88  1F6A               	comf	(??___flge+2)& (0+255),f,b
  4230  002A8A  1F6B               	comf	(??___flge+3)& (0+255),f,b
  4231  002A8C  2B68               	incf	??___flge& (0+255),f,b
  4232  002A8E  0E00               	movlw	0
  4233  002A90  2369               	addwfc	(??___flge+1)& (0+255),f,b
  4234  002A92  236A               	addwfc	(??___flge+2)& (0+255),f,b
  4235  002A94  236B               	addwfc	(??___flge+3)& (0+255),f,b
  4236  002A96  0E00               	movlw	0
  4237  002A98  2568               	addwf	??___flge& (0+255),w,b
  4238  002A9A  6F60               	movwf	___flge@ff1& (0+255),b
  4239  002A9C  0E00               	movlw	0
  4240  002A9E  2169               	addwfc	(??___flge+1)& (0+255),w,b
  4241  002AA0  6F61               	movwf	(___flge@ff1+1)& (0+255),b
  4242  002AA2  0E00               	movlw	0
  4243  002AA4  216A               	addwfc	(??___flge+2)& (0+255),w,b
  4244  002AA6  6F62               	movwf	(___flge@ff1+2)& (0+255),b
  4245  002AA8  0E80               	movlw	128
  4246  002AAA  216B               	addwfc	(??___flge+3)& (0+255),w,b
  4247  002AAC  6F63               	movwf	(___flge@ff1+3)& (0+255),b
  4248  002AAE                     l756:
  4249                           
  4250                           ; BSR set to: 0
  4251                           
  4252                           ; BSR set to: 0
  4253  002AAE  AF67               	btfss	(___flge@ff2+3)& (0+255),7,b
  4254  002AB0  D01D               	goto	l757
  4255                           
  4256                           ; BSR set to: 0
  4257  002AB2  C064  F068         	movff	___flge@ff2,??___flge
  4258  002AB6  C065  F069         	movff	___flge@ff2+1,??___flge+1
  4259  002ABA  C066  F06A         	movff	___flge@ff2+2,??___flge+2
  4260  002ABE  C067  F06B         	movff	___flge@ff2+3,??___flge+3
  4261  002AC2  1F68               	comf	??___flge& (0+255),f,b
  4262  002AC4  1F69               	comf	(??___flge+1)& (0+255),f,b
  4263  002AC6  1F6A               	comf	(??___flge+2)& (0+255),f,b
  4264  002AC8  1F6B               	comf	(??___flge+3)& (0+255),f,b
  4265  002ACA  2B68               	incf	??___flge& (0+255),f,b
  4266  002ACC  0E00               	movlw	0
  4267  002ACE  2369               	addwfc	(??___flge+1)& (0+255),f,b
  4268  002AD0  236A               	addwfc	(??___flge+2)& (0+255),f,b
  4269  002AD2  236B               	addwfc	(??___flge+3)& (0+255),f,b
  4270  002AD4  0E00               	movlw	0
  4271  002AD6  2568               	addwf	??___flge& (0+255),w,b
  4272  002AD8  6F64               	movwf	___flge@ff2& (0+255),b
  4273  002ADA  0E00               	movlw	0
  4274  002ADC  2169               	addwfc	(??___flge+1)& (0+255),w,b
  4275  002ADE  6F65               	movwf	(___flge@ff2+1)& (0+255),b
  4276  002AE0  0E00               	movlw	0
  4277  002AE2  216A               	addwfc	(??___flge+2)& (0+255),w,b
  4278  002AE4  6F66               	movwf	(___flge@ff2+2)& (0+255),b
  4279  002AE6  0E80               	movlw	128
  4280  002AE8  216B               	addwfc	(??___flge+3)& (0+255),w,b
  4281  002AEA  6F67               	movwf	(___flge@ff2+3)& (0+255),b
  4282  002AEC                     l757:
  4283                           
  4284                           ; BSR set to: 0
  4285  002AEC  0E00               	movlw	0
  4286  002AEE  1B60               	xorwf	___flge@ff1& (0+255),f,b
  4287  002AF0  0E00               	movlw	0
  4288  002AF2  1B61               	xorwf	(___flge@ff1+1)& (0+255),f,b
  4289  002AF4  0E00               	movlw	0
  4290  002AF6  1B62               	xorwf	(___flge@ff1+2)& (0+255),f,b
  4291  002AF8  0E80               	movlw	128
  4292  002AFA  1B63               	xorwf	(___flge@ff1+3)& (0+255),f,b
  4293  002AFC  0E00               	movlw	0
  4294  002AFE  1B64               	xorwf	___flge@ff2& (0+255),f,b
  4295  002B00  0E00               	movlw	0
  4296  002B02  1B65               	xorwf	(___flge@ff2+1)& (0+255),f,b
  4297  002B04  0E00               	movlw	0
  4298  002B06  1B66               	xorwf	(___flge@ff2+2)& (0+255),f,b
  4299  002B08  0E80               	movlw	128
  4300  002B0A  1B67               	xorwf	(___flge@ff2+3)& (0+255),f,b
  4301  002B0C  5164               	movf	___flge@ff2& (0+255),w,b
  4302  002B0E  5D60               	subwf	___flge@ff1& (0+255),w,b
  4303  002B10  5165               	movf	(___flge@ff2+1)& (0+255),w,b
  4304  002B12  5961               	subwfb	(___flge@ff1+1)& (0+255),w,b
  4305  002B14  5166               	movf	(___flge@ff2+2)& (0+255),w,b
  4306  002B16  5962               	subwfb	(___flge@ff1+2)& (0+255),w,b
  4307  002B18  5167               	movf	(___flge@ff2+3)& (0+255),w,b
  4308  002B1A  5963               	subwfb	(___flge@ff1+3)& (0+255),w,b
  4309  002B1C  B0D8               	btfsc	status,0,c
  4310  002B1E  D002               	goto	l2594
  4311                           
  4312                           ; BSR set to: 0
  4313  002B20  90D8               	bcf	status,0,c
  4314  002B22  0012               	return	
  4315  002B24                     l2594:
  4316                           
  4317                           ; BSR set to: 0
  4318                           
  4319                           ; BSR set to: 0
  4320  002B24  80D8               	bsf	status,0,c
  4321                           
  4322                           ; BSR set to: 0
  4323  002B26  0012               	return	
  4324  002B28                     __end_of___flge:
  4325                           	opt stack 0
  4326                           tblptru	equ	0xFF8
  4327                           tblptrh	equ	0xFF7
  4328                           tblptrl	equ	0xFF6
  4329                           tablat	equ	0xFF5
  4330                           prodh	equ	0xFF4
  4331                           prodl	equ	0xFF3
  4332                           intcon	equ	0xFF2
  4333                           postinc0	equ	0xFEE
  4334                           wreg	equ	0xFE8
  4335                           postdec1	equ	0xFE5
  4336                           fsr1l	equ	0xFE1
  4337                           postinc2	equ	0xFDE
  4338                           postdec2	equ	0xFDD
  4339                           fsr2h	equ	0xFDA
  4340                           fsr2l	equ	0xFD9
  4341                           status	equ	0xFD8
  4342                           
  4343 ;; *************** function ___fladd *****************
  4344 ;; Defined at:
  4345 ;;		line 10 in file "C:\Program Files (x86)\Microchip\xc8\v1.45\sources\common\sprcadd.c"
  4346 ;; Parameters:    Size  Location     Type
  4347 ;;  b               4   43[BANK0 ] unsigned char 
  4348 ;;  a               4   47[BANK0 ] unsigned char 
  4349 ;; Auto vars:     Size  Location     Type
  4350 ;;  grs             1   62[BANK0 ] unsigned char 
  4351 ;;  bexp            1   61[BANK0 ] unsigned char 
  4352 ;;  aexp            1   60[BANK0 ] unsigned char 
  4353 ;;  signs           1   59[BANK0 ] unsigned char 
  4354 ;; Return value:  Size  Location     Type
  4355 ;;                  4   43[BANK0 ] unsigned char 
  4356 ;; Registers used:
  4357 ;;		wreg, status,2, status,0
  4358 ;; Tracked objects:
  4359 ;;		On entry : 0/0
  4360 ;;		On exit  : 0/0
  4361 ;;		Unchanged: 0/0
  4362 ;; Data sizes:     COMRAM   BANK0   BANK1   BANK2   BANK3   BANK4   BANK5   BANK6   BANK7   BANK8   BANK9  BANK10  BANK1
      +1  BANK12  BANK13  BANK14  BANK15
  4363 ;;      Params:         0       8       0       0       0       0       0       0       0       0       0       0       
      +0       0       0       0       0
  4364 ;;      Locals:         0       4       0       0       0       0       0       0       0       0       0       0       
      +0       0       0       0       0
  4365 ;;      Temps:          0       8       0       0       0       0       0       0       0       0       0       0       
      +0       0       0       0       0
  4366 ;;      Totals:         0      20       0       0       0       0       0       0       0       0       0       0       
      +0       0       0       0       0
  4367 ;;Total ram usage:       20 bytes
  4368 ;; Hardware stack levels used:    1
  4369 ;; Hardware stack levels required when called:    2
  4370 ;; This function calls:
  4371 ;;		Nothing
  4372 ;; This function is called by:
  4373 ;;		_Control_up
  4374 ;;		_Control_down
  4375 ;;		_controle_vb
  4376 ;; This function uses a non-reentrant model
  4377 ;;
  4378                           
  4379                           	psect	text12
  4380  001A76                     __ptext12:
  4381                           	opt stack 0
  4382  001A76                     ___fladd:
  4383                           	opt stack 27
  4384                           
  4385                           ; BSR set to: 0
  4386                           ;incstack = 0
  4387  001A76  0100               	movlb	0	; () banked
  4388  001A78  518E               	movf	(___fladd@b+3)& (0+255),w,b
  4389  001A7A  0B80               	andlw	128
  4390  001A7C  6F9B               	movwf	___fladd@signs& (0+255),b
  4391  001A7E  518E               	movf	(___fladd@b+3)& (0+255),w,b
  4392  001A80  258E               	addwf	(___fladd@b+3)& (0+255),w,b
  4393  001A82  6F9D               	movwf	___fladd@bexp& (0+255),b
  4394                           
  4395                           ; BSR set to: 0
  4396  001A84  BF8D               	btfsc	(___fladd@b+2)& (0+255),7,b
  4397                           
  4398                           ; BSR set to: 0
  4399  001A86  819D               	bsf	___fladd@bexp& (0+255),0,b
  4400                           
  4401                           ; BSR set to: 0
  4402                           
  4403                           ; BSR set to: 0
  4404  001A88  519D               	movf	___fladd@bexp& (0+255),w,b
  4405  001A8A  B4D8               	btfsc	status,2,c
  4406  001A8C  D00D               	goto	l983
  4407                           
  4408                           ; BSR set to: 0
  4409  001A8E  299D               	incf	___fladd@bexp& (0+255),w,b
  4410  001A90  A4D8               	btfss	status,2,c
  4411  001A92  D008               	goto	l984
  4412                           
  4413                           ; BSR set to: 0
  4414  001A94  0E00               	movlw	0
  4415  001A96  6F8B               	movwf	___fladd@b& (0+255),b
  4416  001A98  0E00               	movlw	0
  4417  001A9A  6F8C               	movwf	(___fladd@b+1)& (0+255),b
  4418  001A9C  0E00               	movlw	0
  4419  001A9E  6F8D               	movwf	(___fladd@b+2)& (0+255),b
  4420  001AA0  0E00               	movlw	0
  4421  001AA2  6F8E               	movwf	(___fladd@b+3)& (0+255),b
  4422  001AA4                     l984:
  4423                           
  4424                           ; BSR set to: 0
  4425                           
  4426                           ; BSR set to: 0
  4427  001AA4  8F8D               	bsf	(___fladd@b+2)& (0+255),7,b
  4428  001AA6  D006               	goto	L4
  4429  001AA8                     l983:
  4430                           
  4431                           ; BSR set to: 0
  4432                           
  4433                           ; BSR set to: 0
  4434  001AA8  0E00               	movlw	0
  4435  001AAA  6F8B               	movwf	___fladd@b& (0+255),b
  4436  001AAC  0E00               	movlw	0
  4437  001AAE  6F8C               	movwf	(___fladd@b+1)& (0+255),b
  4438  001AB0  0E00               	movlw	0
  4439  001AB2  6F8D               	movwf	(___fladd@b+2)& (0+255),b
  4440  001AB4                     L4:
  4441  001AB4  0E00               	movlw	0
  4442  001AB6  6F8E               	movwf	(___fladd@b+3)& (0+255),b
  4443                           
  4444                           ; BSR set to: 0
  4445                           
  4446                           ; BSR set to: 0
  4447  001AB8  5192               	movf	(___fladd@a+3)& (0+255),w,b
  4448  001ABA  0B80               	andlw	128
  4449  001ABC  6F9C               	movwf	___fladd@aexp& (0+255),b
  4450                           
  4451                           ; BSR set to: 0
  4452  001ABE  519B               	movf	___fladd@signs& (0+255),w,b
  4453  001AC0  199C               	xorwf	___fladd@aexp& (0+255),w,b
  4454  001AC2  A4D8               	btfss	status,2,c
  4455                           
  4456                           ; BSR set to: 0
  4457  001AC4  8D9B               	bsf	___fladd@signs& (0+255),6,b
  4458                           
  4459                           ; BSR set to: 0
  4460                           
  4461                           ; BSR set to: 0
  4462  001AC6  5192               	movf	(___fladd@a+3)& (0+255),w,b
  4463  001AC8  2592               	addwf	(___fladd@a+3)& (0+255),w,b
  4464  001ACA  6F9C               	movwf	___fladd@aexp& (0+255),b
  4465                           
  4466                           ; BSR set to: 0
  4467  001ACC  BF91               	btfsc	(___fladd@a+2)& (0+255),7,b
  4468                           
  4469                           ; BSR set to: 0
  4470  001ACE  819C               	bsf	___fladd@aexp& (0+255),0,b
  4471                           
  4472                           ; BSR set to: 0
  4473                           
  4474                           ; BSR set to: 0
  4475  001AD0  519C               	movf	___fladd@aexp& (0+255),w,b
  4476  001AD2  B4D8               	btfsc	status,2,c
  4477  001AD4  D00D               	goto	l988
  4478                           
  4479                           ; BSR set to: 0
  4480  001AD6  299C               	incf	___fladd@aexp& (0+255),w,b
  4481  001AD8  A4D8               	btfss	status,2,c
  4482  001ADA  D008               	goto	l989
  4483                           
  4484                           ; BSR set to: 0
  4485  001ADC  0E00               	movlw	0
  4486  001ADE  6F8F               	movwf	___fladd@a& (0+255),b
  4487  001AE0  0E00               	movlw	0
  4488  001AE2  6F90               	movwf	(___fladd@a+1)& (0+255),b
  4489  001AE4  0E00               	movlw	0
  4490  001AE6  6F91               	movwf	(___fladd@a+2)& (0+255),b
  4491  001AE8  0E00               	movlw	0
  4492  001AEA  6F92               	movwf	(___fladd@a+3)& (0+255),b
  4493  001AEC                     l989:
  4494                           
  4495                           ; BSR set to: 0
  4496                           
  4497                           ; BSR set to: 0
  4498  001AEC  8F91               	bsf	(___fladd@a+2)& (0+255),7,b
  4499  001AEE  D006               	goto	L5
  4500  001AF0                     l988:
  4501                           
  4502                           ; BSR set to: 0
  4503                           
  4504                           ; BSR set to: 0
  4505  001AF0  0E00               	movlw	0
  4506  001AF2  6F8F               	movwf	___fladd@a& (0+255),b
  4507  001AF4  0E00               	movlw	0
  4508  001AF6  6F90               	movwf	(___fladd@a+1)& (0+255),b
  4509  001AF8  0E00               	movlw	0
  4510  001AFA  6F91               	movwf	(___fladd@a+2)& (0+255),b
  4511  001AFC                     L5:
  4512  001AFC  0E00               	movlw	0
  4513  001AFE  6F92               	movwf	(___fladd@a+3)& (0+255),b
  4514                           
  4515                           ; BSR set to: 0
  4516                           
  4517                           ; BSR set to: 0
  4518  001B00  519D               	movf	___fladd@bexp& (0+255),w,b
  4519  001B02  5D9C               	subwf	___fladd@aexp& (0+255),w,b
  4520  001B04  B0D8               	btfsc	status,0,c
  4521  001B06  D022               	goto	l991
  4522                           
  4523                           ; BSR set to: 0
  4524  001B08  AD9B               	btfss	___fladd@signs& (0+255),6,b
  4525  001B0A  D002               	goto	l992
  4526                           
  4527                           ; BSR set to: 0
  4528  001B0C  0E80               	movlw	128
  4529  001B0E  1B9B               	xorwf	___fladd@signs& (0+255),f,b
  4530  001B10                     l992:
  4531                           
  4532                           ; BSR set to: 0
  4533                           
  4534                           ; BSR set to: 0
  4535  001B10  C09D  F09E         	movff	___fladd@bexp,___fladd@grs
  4536                           
  4537                           ; BSR set to: 0
  4538  001B14  C09C  F09D         	movff	___fladd@aexp,___fladd@bexp
  4539                           
  4540                           ; BSR set to: 0
  4541  001B18  C09E  F09C         	movff	___fladd@grs,___fladd@aexp
  4542                           
  4543                           ; BSR set to: 0
  4544  001B1C  C08B  F09E         	movff	___fladd@b,___fladd@grs
  4545                           
  4546                           ; BSR set to: 0
  4547  001B20  C08F  F08B         	movff	___fladd@a,___fladd@b
  4548                           
  4549                           ; BSR set to: 0
  4550  001B24  C09E  F08F         	movff	___fladd@grs,___fladd@a
  4551                           
  4552                           ; BSR set to: 0
  4553  001B28  C08C  F09E         	movff	___fladd@b+1,___fladd@grs
  4554                           
  4555                           ; BSR set to: 0
  4556  001B2C  C090  F08C         	movff	___fladd@a+1,___fladd@b+1
  4557                           
  4558                           ; BSR set to: 0
  4559  001B30  C09E  F090         	movff	___fladd@grs,___fladd@a+1
  4560                           
  4561                           ; BSR set to: 0
  4562  001B34  C08D  F09E         	movff	___fladd@b+2,___fladd@grs
  4563                           
  4564                           ; BSR set to: 0
  4565  001B38  C091  F08D         	movff	___fladd@a+2,___fladd@b+2
  4566                           
  4567                           ; BSR set to: 0
  4568  001B3C  C09E  F091         	movff	___fladd@grs,___fladd@a+2
  4569                           
  4570                           ; BSR set to: 0
  4571  001B40  C08E  F09E         	movff	___fladd@b+3,___fladd@grs
  4572                           
  4573                           ; BSR set to: 0
  4574  001B44  C092  F08E         	movff	___fladd@a+3,___fladd@b+3
  4575                           
  4576                           ; BSR set to: 0
  4577  001B48  C09E  F092         	movff	___fladd@grs,___fladd@a+3
  4578  001B4C                     l991:
  4579                           
  4580                           ; BSR set to: 0
  4581                           
  4582                           ; BSR set to: 0
  4583  001B4C  0E00               	movlw	0
  4584  001B4E  6F9E               	movwf	___fladd@grs& (0+255),b
  4585                           
  4586                           ; BSR set to: 0
  4587  001B50  519D               	movf	___fladd@bexp& (0+255),w,b
  4588  001B52  6F93               	movwf	??___fladd& (0+255),b
  4589  001B54  6B94               	clrf	(??___fladd+1)& (0+255),b
  4590  001B56  1F93               	comf	??___fladd& (0+255),f,b
  4591  001B58  1F94               	comf	(??___fladd+1)& (0+255),f,b
  4592  001B5A  4B93               	infsnz	??___fladd& (0+255),f,b
  4593  001B5C  2B94               	incf	(??___fladd+1)& (0+255),f,b
  4594  001B5E  519C               	movf	___fladd@aexp& (0+255),w,b
  4595  001B60  6F95               	movwf	(??___fladd+2)& (0+255),b
  4596  001B62  6B96               	clrf	(??___fladd+3)& (0+255),b
  4597  001B64  5193               	movf	??___fladd& (0+255),w,b
  4598  001B66  2795               	addwf	(??___fladd+2)& (0+255),f,b
  4599  001B68  5194               	movf	(??___fladd+1)& (0+255),w,b
  4600  001B6A  2396               	addwfc	(??___fladd+3)& (0+255),f,b
  4601  001B6C  BF96               	btfsc	(??___fladd+3)& (0+255),7,b
  4602  001B6E  D02C               	goto	l995
  4603  001B70  5196               	movf	(??___fladd+3)& (0+255),w,b
  4604  001B72  E104               	bnz	u2130
  4605  001B74  0E1A               	movlw	26
  4606  001B76  5D95               	subwf	(??___fladd+2)& (0+255),w,b
  4607  001B78  A0D8               	btfss	status,0,c
  4608  001B7A  D026               	goto	l995
  4609  001B7C                     u2130:
  4610                           
  4611                           ; BSR set to: 0
  4612  001B7C  518B               	movf	___fladd@b& (0+255),w,b
  4613  001B7E  118C               	iorwf	(___fladd@b+1)& (0+255),w,b
  4614  001B80  118D               	iorwf	(___fladd@b+2)& (0+255),w,b
  4615  001B82  118E               	iorwf	(___fladd@b+3)& (0+255),w,b
  4616  001B84  B4D8               	btfsc	status,2,c
  4617  001B86  D002               	goto	u2140
  4618  001B88  0E01               	movlw	1
  4619  001B8A  D001               	goto	u2150
  4620  001B8C                     u2140:
  4621  001B8C  0E00               	movlw	0
  4622  001B8E                     u2150:
  4623  001B8E  6F9E               	movwf	___fladd@grs& (0+255),b
  4624                           
  4625                           ; BSR set to: 0
  4626  001B90  0E00               	movlw	0
  4627  001B92  6F8B               	movwf	___fladd@b& (0+255),b
  4628  001B94  0E00               	movlw	0
  4629  001B96  6F8C               	movwf	(___fladd@b+1)& (0+255),b
  4630  001B98  0E00               	movlw	0
  4631  001B9A  6F8D               	movwf	(___fladd@b+2)& (0+255),b
  4632  001B9C  0E00               	movlw	0
  4633  001B9E  6F8E               	movwf	(___fladd@b+3)& (0+255),b
  4634                           
  4635                           ; BSR set to: 0
  4636  001BA0  C09C  F09D         	movff	___fladd@aexp,___fladd@bexp
  4637  001BA4  D015               	goto	u2180
  4638  001BA6                     l996:
  4639                           
  4640                           ; BSR set to: 0
  4641  001BA6  A19E               	btfss	___fladd@grs& (0+255),0,b
  4642  001BA8  D005               	goto	l997
  4643                           
  4644                           ; BSR set to: 0
  4645  001BAA  90D8               	bcf	status,0,c
  4646  001BAC  319E               	rrcf	___fladd@grs& (0+255),w,b
  4647  001BAE  0901               	iorlw	1
  4648  001BB0  6F9E               	movwf	___fladd@grs& (0+255),b
  4649  001BB2  D002               	goto	l998
  4650  001BB4                     l997:
  4651                           
  4652                           ; BSR set to: 0
  4653                           
  4654                           ; BSR set to: 0
  4655  001BB4  90D8               	bcf	status,0,c
  4656  001BB6  339E               	rrcf	___fladd@grs& (0+255),f,b
  4657  001BB8                     l998:
  4658                           
  4659                           ; BSR set to: 0
  4660                           
  4661                           ; BSR set to: 0
  4662  001BB8  B18B               	btfsc	___fladd@b& (0+255),0,b
  4663                           
  4664                           ; BSR set to: 0
  4665  001BBA  8F9E               	bsf	___fladd@grs& (0+255),7,b
  4666                           
  4667                           ; BSR set to: 0
  4668                           
  4669                           ; BSR set to: 0
  4670  001BBC  358E               	rlcf	(___fladd@b+3)& (0+255),w,b
  4671  001BBE  338E               	rrcf	(___fladd@b+3)& (0+255),f,b
  4672  001BC0  338D               	rrcf	(___fladd@b+2)& (0+255),f,b
  4673  001BC2  338C               	rrcf	(___fladd@b+1)& (0+255),f,b
  4674  001BC4  338B               	rrcf	___fladd@b& (0+255),f,b
  4675                           
  4676                           ; BSR set to: 0
  4677  001BC6  2B9D               	incf	___fladd@bexp& (0+255),f,b
  4678  001BC8                     l995:
  4679                           
  4680                           ; BSR set to: 0
  4681  001BC8  519C               	movf	___fladd@aexp& (0+255),w,b
  4682  001BCA  5D9D               	subwf	___fladd@bexp& (0+255),w,b
  4683  001BCC  A0D8               	btfss	status,0,c
  4684  001BCE  D7EB               	goto	l996
  4685  001BD0                     u2180:
  4686                           
  4687                           ; BSR set to: 0
  4688                           
  4689                           ; BSR set to: 0
  4690  001BD0  BD9B               	btfsc	___fladd@signs& (0+255),6,b
  4691  001BD2  D029               	goto	l1001
  4692                           
  4693                           ; BSR set to: 0
  4694  001BD4  519D               	movf	___fladd@bexp& (0+255),w,b
  4695  001BD6  A4D8               	btfss	status,2,c
  4696  001BD8  D009               	goto	l1002
  4697                           
  4698                           ; BSR set to: 0
  4699  001BDA  0E00               	movlw	0
  4700  001BDC  6F8B               	movwf	?___fladd& (0+255),b
  4701  001BDE  0E00               	movlw	0
  4702  001BE0  6F8C               	movwf	(?___fladd+1)& (0+255),b
  4703  001BE2  0E00               	movlw	0
  4704  001BE4  6F8D               	movwf	(?___fladd+2)& (0+255),b
  4705  001BE6  0E00               	movlw	0
  4706  001BE8  6F8E               	movwf	(?___fladd+3)& (0+255),b
  4707                           
  4708                           ; BSR set to: 0
  4709  001BEA  0012               	return	
  4710  001BEC                     l1002:
  4711                           
  4712                           ; BSR set to: 0
  4713                           
  4714                           ; BSR set to: 0
  4715  001BEC  518F               	movf	___fladd@a& (0+255),w,b
  4716  001BEE  278B               	addwf	___fladd@b& (0+255),f,b
  4717  001BF0  5190               	movf	(___fladd@a+1)& (0+255),w,b
  4718  001BF2  238C               	addwfc	(___fladd@b+1)& (0+255),f,b
  4719  001BF4  5191               	movf	(___fladd@a+2)& (0+255),w,b
  4720  001BF6  238D               	addwfc	(___fladd@b+2)& (0+255),f,b
  4721  001BF8  5192               	movf	(___fladd@a+3)& (0+255),w,b
  4722  001BFA  238E               	addwfc	(___fladd@b+3)& (0+255),f,b
  4723                           
  4724                           ; BSR set to: 0
  4725  001BFC  A18E               	btfss	(___fladd@b+3)& (0+255),0,b
  4726  001BFE  D083               	goto	u2310
  4727                           
  4728                           ; BSR set to: 0
  4729  001C00  A19E               	btfss	___fladd@grs& (0+255),0,b
  4730  001C02  D006               	goto	l1005
  4731                           
  4732                           ; BSR set to: 0
  4733  001C04  90D8               	bcf	status,0,c
  4734  001C06  339E               	rrcf	___fladd@grs& (0+255),f,b
  4735  001C08  519E               	movf	___fladd@grs& (0+255),w,b
  4736  001C0A  0901               	iorlw	1
  4737  001C0C  6F9E               	movwf	___fladd@grs& (0+255),b
  4738  001C0E  D002               	goto	l1006
  4739  001C10                     l1005:
  4740                           
  4741                           ; BSR set to: 0
  4742                           
  4743                           ; BSR set to: 0
  4744  001C10  90D8               	bcf	status,0,c
  4745  001C12  339E               	rrcf	___fladd@grs& (0+255),f,b
  4746  001C14                     l1006:
  4747                           
  4748                           ; BSR set to: 0
  4749                           
  4750                           ; BSR set to: 0
  4751  001C14  B18B               	btfsc	___fladd@b& (0+255),0,b
  4752                           
  4753                           ; BSR set to: 0
  4754  001C16  8F9E               	bsf	___fladd@grs& (0+255),7,b
  4755                           
  4756                           ; BSR set to: 0
  4757                           
  4758                           ; BSR set to: 0
  4759  001C18  358E               	rlcf	(___fladd@b+3)& (0+255),w,b
  4760  001C1A  338E               	rrcf	(___fladd@b+3)& (0+255),f,b
  4761  001C1C  338D               	rrcf	(___fladd@b+2)& (0+255),f,b
  4762  001C1E  338C               	rrcf	(___fladd@b+1)& (0+255),f,b
  4763  001C20  338B               	rrcf	___fladd@b& (0+255),f,b
  4764                           
  4765                           ; BSR set to: 0
  4766  001C22  2B9D               	incf	___fladd@bexp& (0+255),f,b
  4767                           
  4768                           ; BSR set to: 0
  4769  001C24  D070               	goto	u2310
  4770  001C26                     l1001:
  4771                           
  4772                           ; BSR set to: 0
  4773                           
  4774                           ; BSR set to: 0
  4775  001C26  518F               	movf	___fladd@a& (0+255),w,b
  4776  001C28  5D8B               	subwf	___fladd@b& (0+255),w,b
  4777  001C2A  5190               	movf	(___fladd@a+1)& (0+255),w,b
  4778  001C2C  598C               	subwfb	(___fladd@b+1)& (0+255),w,b
  4779  001C2E  5191               	movf	(___fladd@a+2)& (0+255),w,b
  4780  001C30  598D               	subwfb	(___fladd@b+2)& (0+255),w,b
  4781  001C32  518E               	movf	(___fladd@b+3)& (0+255),w,b
  4782  001C34  0A80               	xorlw	128
  4783  001C36  6F93               	movwf	??___fladd& (0+255),b
  4784  001C38  5192               	movf	(___fladd@a+3)& (0+255),w,b
  4785  001C3A  0A80               	xorlw	128
  4786  001C3C  5993               	subwfb	??___fladd& (0+255),w,b
  4787  001C3E  B0D8               	btfsc	status,0,c
  4788  001C40  D036               	goto	l1009
  4789                           
  4790                           ; BSR set to: 0
  4791  001C42  C08B  F093         	movff	___fladd@b,??___fladd
  4792  001C46  C08C  F094         	movff	___fladd@b+1,??___fladd+1
  4793  001C4A  C08D  F095         	movff	___fladd@b+2,??___fladd+2
  4794  001C4E  C08E  F096         	movff	___fladd@b+3,??___fladd+3
  4795  001C52  1F93               	comf	??___fladd& (0+255),f,b
  4796  001C54  1F94               	comf	(??___fladd+1)& (0+255),f,b
  4797  001C56  1F95               	comf	(??___fladd+2)& (0+255),f,b
  4798  001C58  1F96               	comf	(??___fladd+3)& (0+255),f,b
  4799  001C5A  2B93               	incf	??___fladd& (0+255),f,b
  4800  001C5C  0E00               	movlw	0
  4801  001C5E  2394               	addwfc	(??___fladd+1)& (0+255),f,b
  4802  001C60  2395               	addwfc	(??___fladd+2)& (0+255),f,b
  4803  001C62  2396               	addwfc	(??___fladd+3)& (0+255),f,b
  4804  001C64  518F               	movf	___fladd@a& (0+255),w,b
  4805  001C66  2593               	addwf	??___fladd& (0+255),w,b
  4806  001C68  6F97               	movwf	(??___fladd+4)& (0+255),b
  4807  001C6A  5190               	movf	(___fladd@a+1)& (0+255),w,b
  4808  001C6C  2194               	addwfc	(??___fladd+1)& (0+255),w,b
  4809  001C6E  6F98               	movwf	(??___fladd+5)& (0+255),b
  4810  001C70  5191               	movf	(___fladd@a+2)& (0+255),w,b
  4811  001C72  2195               	addwfc	(??___fladd+2)& (0+255),w,b
  4812  001C74  6F99               	movwf	(??___fladd+6)& (0+255),b
  4813  001C76  5192               	movf	(___fladd@a+3)& (0+255),w,b
  4814  001C78  2196               	addwfc	(??___fladd+3)& (0+255),w,b
  4815  001C7A  6F9A               	movwf	(??___fladd+7)& (0+255),b
  4816  001C7C  0EFF               	movlw	255
  4817  001C7E  2597               	addwf	(??___fladd+4)& (0+255),w,b
  4818  001C80  6F8B               	movwf	___fladd@b& (0+255),b
  4819  001C82  0EFF               	movlw	255
  4820  001C84  2198               	addwfc	(??___fladd+5)& (0+255),w,b
  4821  001C86  6F8C               	movwf	(___fladd@b+1)& (0+255),b
  4822  001C88  0EFF               	movlw	255
  4823  001C8A  2199               	addwfc	(??___fladd+6)& (0+255),w,b
  4824  001C8C  6F8D               	movwf	(___fladd@b+2)& (0+255),b
  4825  001C8E  0EFF               	movlw	255
  4826  001C90  219A               	addwfc	(??___fladd+7)& (0+255),w,b
  4827  001C92  6F8E               	movwf	(___fladd@b+3)& (0+255),b
  4828  001C94  0E80               	movlw	128
  4829  001C96  1B9B               	xorwf	___fladd@signs& (0+255),f,b
  4830                           
  4831                           ; BSR set to: 0
  4832  001C98  6D9E               	negf	___fladd@grs& (0+255),b
  4833                           
  4834                           ; BSR set to: 0
  4835  001C9A  519E               	movf	___fladd@grs& (0+255),w,b
  4836  001C9C  A4D8               	btfss	status,2,c
  4837  001C9E  D00F               	goto	l1011
  4838                           
  4839                           ; BSR set to: 0
  4840  001CA0  0E01               	movlw	1
  4841  001CA2  278B               	addwf	___fladd@b& (0+255),f,b
  4842  001CA4  0E00               	movlw	0
  4843  001CA6  238C               	addwfc	(___fladd@b+1)& (0+255),f,b
  4844  001CA8  238D               	addwfc	(___fladd@b+2)& (0+255),f,b
  4845  001CAA  238E               	addwfc	(___fladd@b+3)& (0+255),f,b
  4846                           
  4847                           ; BSR set to: 0
  4848  001CAC  D008               	goto	l1011
  4849  001CAE                     l1009:
  4850                           
  4851                           ; BSR set to: 0
  4852                           
  4853                           ; BSR set to: 0
  4854  001CAE  518F               	movf	___fladd@a& (0+255),w,b
  4855  001CB0  5F8B               	subwf	___fladd@b& (0+255),f,b
  4856  001CB2  5190               	movf	(___fladd@a+1)& (0+255),w,b
  4857  001CB4  5B8C               	subwfb	(___fladd@b+1)& (0+255),f,b
  4858  001CB6  5191               	movf	(___fladd@a+2)& (0+255),w,b
  4859  001CB8  5B8D               	subwfb	(___fladd@b+2)& (0+255),f,b
  4860  001CBA  5192               	movf	(___fladd@a+3)& (0+255),w,b
  4861  001CBC  5B8E               	subwfb	(___fladd@b+3)& (0+255),f,b
  4862  001CBE                     l1011:
  4863                           
  4864                           ; BSR set to: 0
  4865  001CBE  518B               	movf	___fladd@b& (0+255),w,b
  4866  001CC0  118C               	iorwf	(___fladd@b+1)& (0+255),w,b
  4867  001CC2  118D               	iorwf	(___fladd@b+2)& (0+255),w,b
  4868  001CC4  118E               	iorwf	(___fladd@b+3)& (0+255),w,b
  4869  001CC6  A4D8               	btfss	status,2,c
  4870  001CC8  D01C               	goto	l1018
  4871                           
  4872                           ; BSR set to: 0
  4873  001CCA  519E               	movf	___fladd@grs& (0+255),w,b
  4874  001CCC  A4D8               	btfss	status,2,c
  4875  001CCE  D019               	goto	l1018
  4876                           
  4877                           ; BSR set to: 0
  4878  001CD0  0E00               	movlw	0
  4879  001CD2  6F8B               	movwf	?___fladd& (0+255),b
  4880  001CD4  0E00               	movlw	0
  4881  001CD6  6F8C               	movwf	(?___fladd+1)& (0+255),b
  4882  001CD8  0E00               	movlw	0
  4883  001CDA  6F8D               	movwf	(?___fladd+2)& (0+255),b
  4884  001CDC  0E00               	movlw	0
  4885  001CDE  6F8E               	movwf	(?___fladd+3)& (0+255),b
  4886                           
  4887                           ; BSR set to: 0
  4888  001CE0  0012               	return	
  4889  001CE2                     
  4890                           ; BSR set to: 0
  4891                           
  4892                           ; BSR set to: 0
  4893  001CE2  90D8               	bcf	status,0,c
  4894  001CE4  378B               	rlcf	___fladd@b& (0+255),f,b
  4895  001CE6  378C               	rlcf	(___fladd@b+1)& (0+255),f,b
  4896  001CE8  378D               	rlcf	(___fladd@b+2)& (0+255),f,b
  4897  001CEA  378E               	rlcf	(___fladd@b+3)& (0+255),f,b
  4898                           
  4899                           ; BSR set to: 0
  4900  001CEC  BF9E               	btfsc	___fladd@grs& (0+255),7,b
  4901                           
  4902                           ; BSR set to: 0
  4903  001CEE  818B               	bsf	___fladd@b& (0+255),0,b
  4904                           
  4905                           ; BSR set to: 0
  4906                           
  4907                           ; BSR set to: 0
  4908  001CF0  A19E               	btfss	___fladd@grs& (0+255),0,b
  4909  001CF2  D002               	goto	l1016
  4910                           
  4911                           ; BSR set to: 0
  4912  001CF4  80D8               	bsf	status,0,c
  4913  001CF6  D001               	goto	L6
  4914  001CF8                     l1016:
  4915                           
  4916                           ; BSR set to: 0
  4917                           
  4918                           ; BSR set to: 0
  4919  001CF8  90D8               	bcf	status,0,c
  4920  001CFA                     L6:
  4921  001CFA  379E               	rlcf	___fladd@grs& (0+255),f,b
  4922                           
  4923                           ; BSR set to: 0
  4924                           
  4925                           ; BSR set to: 0
  4926  001CFC  519D               	movf	___fladd@bexp& (0+255),w,b
  4927  001CFE  A4D8               	btfss	status,2,c
  4928                           
  4929                           ; BSR set to: 0
  4930  001D00  079D               	decf	___fladd@bexp& (0+255),f,b
  4931  001D02                     l1018:
  4932                           
  4933                           ; BSR set to: 0
  4934                           
  4935                           ; BSR set to: 0
  4936                           
  4937                           ; BSR set to: 0
  4938  001D02  AF8D               	btfss	(___fladd@b+2)& (0+255),7,b
  4939  001D04  D7EE               	goto	l1014
  4940  001D06                     u2310:
  4941                           
  4942                           ; BSR set to: 0
  4943                           
  4944                           ; BSR set to: 0
  4945                           
  4946                           ; BSR set to: 0
  4947  001D06  0E00               	movlw	0
  4948  001D08  6F9C               	movwf	___fladd@aexp& (0+255),b
  4949                           
  4950                           ; BSR set to: 0
  4951  001D0A  AF9E               	btfss	___fladd@grs& (0+255),7,b
  4952  001D0C  D00A               	goto	l1023
  4953                           
  4954                           ; BSR set to: 0
  4955  001D0E  C09E  F093         	movff	___fladd@grs,??___fladd
  4956  001D12  0E7F               	movlw	127
  4957  001D14  1793               	andwf	??___fladd& (0+255),f,b
  4958  001D16  A4D8               	btfss	status,2,c
  4959  001D18  D002               	goto	u2340
  4960                           
  4961                           ; BSR set to: 0
  4962                           
  4963                           ; BSR set to: 0
  4964  001D1A  A18B               	btfss	___fladd@b& (0+255),0,b
  4965  001D1C  D002               	goto	l1023
  4966  001D1E                     u2340:
  4967                           
  4968                           ; BSR set to: 0
  4969  001D1E  0E01               	movlw	1
  4970  001D20  6F9C               	movwf	___fladd@aexp& (0+255),b
  4971  001D22                     l1023:
  4972                           
  4973                           ; BSR set to: 0
  4974                           
  4975                           ; BSR set to: 0
  4976                           
  4977                           ; BSR set to: 0
  4978  001D22  519C               	movf	___fladd@aexp& (0+255),w,b
  4979  001D24  B4D8               	btfsc	status,2,c
  4980  001D26  D020               	goto	l1026
  4981                           
  4982                           ; BSR set to: 0
  4983  001D28  0E01               	movlw	1
  4984  001D2A  278B               	addwf	___fladd@b& (0+255),f,b
  4985  001D2C  0E00               	movlw	0
  4986  001D2E  238C               	addwfc	(___fladd@b+1)& (0+255),f,b
  4987  001D30  238D               	addwfc	(___fladd@b+2)& (0+255),f,b
  4988  001D32  238E               	addwfc	(___fladd@b+3)& (0+255),f,b
  4989                           
  4990                           ; BSR set to: 0
  4991  001D34  A18E               	btfss	(___fladd@b+3)& (0+255),0,b
  4992  001D36  D018               	goto	l1026
  4993                           
  4994                           ; BSR set to: 0
  4995  001D38  C08B  F093         	movff	___fladd@b,??___fladd
  4996  001D3C  C08C  F094         	movff	___fladd@b+1,??___fladd+1
  4997  001D40  C08D  F095         	movff	___fladd@b+2,??___fladd+2
  4998  001D44  C08E  F096         	movff	___fladd@b+3,??___fladd+3
  4999  001D48  3596               	rlcf	(??___fladd+3)& (0+255),w,b
  5000  001D4A  3396               	rrcf	(??___fladd+3)& (0+255),f,b
  5001  001D4C  3395               	rrcf	(??___fladd+2)& (0+255),f,b
  5002  001D4E  3394               	rrcf	(??___fladd+1)& (0+255),f,b
  5003  001D50  3393               	rrcf	??___fladd& (0+255),f,b
  5004  001D52  C093  F08B         	movff	??___fladd,___fladd@b
  5005  001D56  C094  F08C         	movff	??___fladd+1,___fladd@b+1
  5006  001D5A  C095  F08D         	movff	??___fladd+2,___fladd@b+2
  5007  001D5E  C096  F08E         	movff	??___fladd+3,___fladd@b+3
  5008  001D62  299D               	incf	___fladd@bexp& (0+255),w,b
  5009  001D64  A4D8               	btfss	status,2,c
  5010                           
  5011                           ; BSR set to: 0
  5012  001D66  2B9D               	incf	___fladd@bexp& (0+255),f,b
  5013  001D68                     l1026:
  5014                           
  5015                           ; BSR set to: 0
  5016                           
  5017                           ; BSR set to: 0
  5018                           
  5019                           ; BSR set to: 0
  5020                           
  5021                           ; BSR set to: 0
  5022  001D68  299D               	incf	___fladd@bexp& (0+255),w,b
  5023  001D6A  B4D8               	btfsc	status,2,c
  5024  001D6C  D003               	goto	u2390
  5025                           
  5026                           ; BSR set to: 0
  5027  001D6E  519D               	movf	___fladd@bexp& (0+255),w,b
  5028  001D70  A4D8               	btfss	status,2,c
  5029  001D72  D00D               	goto	l1030
  5030  001D74                     u2390:
  5031                           
  5032                           ; BSR set to: 0
  5033                           
  5034                           ; BSR set to: 0
  5035  001D74  0E00               	movlw	0
  5036  001D76  6F8B               	movwf	___fladd@b& (0+255),b
  5037  001D78  0E00               	movlw	0
  5038  001D7A  6F8C               	movwf	(___fladd@b+1)& (0+255),b
  5039  001D7C  0E00               	movlw	0
  5040  001D7E  6F8D               	movwf	(___fladd@b+2)& (0+255),b
  5041  001D80  0E00               	movlw	0
  5042  001D82  6F8E               	movwf	(___fladd@b+3)& (0+255),b
  5043  001D84  519D               	movf	___fladd@bexp& (0+255),w,b
  5044  001D86  A4D8               	btfss	status,2,c
  5045  001D88  D002               	goto	l1030
  5046                           
  5047                           ; BSR set to: 0
  5048  001D8A  0E00               	movlw	0
  5049  001D8C  6F9B               	movwf	___fladd@signs& (0+255),b
  5050  001D8E                     l1030:
  5051                           
  5052                           ; BSR set to: 0
  5053                           
  5054                           ; BSR set to: 0
  5055                           
  5056                           ; BSR set to: 0
  5057  001D8E  A19D               	btfss	___fladd@bexp& (0+255),0,b
  5058  001D90  D002               	goto	l1031
  5059                           
  5060                           ; BSR set to: 0
  5061  001D92  8F8D               	bsf	(___fladd@b+2)& (0+255),7,b
  5062  001D94  D001               	goto	l1032
  5063  001D96                     l1031:
  5064                           
  5065                           ; BSR set to: 0
  5066                           
  5067                           ; BSR set to: 0
  5068  001D96  9F8D               	bcf	(___fladd@b+2)& (0+255),7,b
  5069  001D98                     l1032:
  5070                           
  5071                           ; BSR set to: 0
  5072                           
  5073                           ; BSR set to: 0
  5074  001D98  90D8               	bcf	status,0,c
  5075  001D9A  319D               	rrcf	___fladd@bexp& (0+255),w,b
  5076  001D9C  6F8E               	movwf	(___fladd@b+3)& (0+255),b
  5077                           
  5078                           ; BSR set to: 0
  5079  001D9E  BF9B               	btfsc	___fladd@signs& (0+255),7,b
  5080                           
  5081                           ; BSR set to: 0
  5082  001DA0  8F8E               	bsf	(___fladd@b+3)& (0+255),7,b
  5083                           
  5084                           ; BSR set to: 0
  5085                           
  5086                           ; BSR set to: 0
  5087  001DA2  C08B  F08B         	movff	___fladd@b,?___fladd
  5088  001DA6  C08C  F08C         	movff	___fladd@b+1,?___fladd+1
  5089  001DAA  C08D  F08D         	movff	___fladd@b+2,?___fladd+2
  5090  001DAE  C08E  F08E         	movff	___fladd@b+3,?___fladd+3
  5091  001DB2  0012               	return	
  5092  001DB4                     __end_of___fladd:
  5093                           	opt stack 0
  5094                           tblptru	equ	0xFF8
  5095                           tblptrh	equ	0xFF7
  5096                           tblptrl	equ	0xFF6
  5097                           tablat	equ	0xFF5
  5098                           prodh	equ	0xFF4
  5099                           prodl	equ	0xFF3
  5100                           intcon	equ	0xFF2
  5101                           postinc0	equ	0xFEE
  5102                           wreg	equ	0xFE8
  5103                           postdec1	equ	0xFE5
  5104                           fsr1l	equ	0xFE1
  5105                           postinc2	equ	0xFDE
  5106                           postdec2	equ	0xFDD
  5107                           fsr2h	equ	0xFDA
  5108                           fsr2l	equ	0xFD9
  5109                           status	equ	0xFD8
  5110                           
  5111 ;; *************** function _Configure_HW *****************
  5112 ;; Defined at:
  5113 ;;		line 392 in file "main.c"
  5114 ;; Parameters:    Size  Location     Type
  5115 ;;		None
  5116 ;; Auto vars:     Size  Location     Type
  5117 ;;		None
  5118 ;; Return value:  Size  Location     Type
  5119 ;;                  1    wreg      void 
  5120 ;; Registers used:
  5121 ;;		wreg, status,2, cstack
  5122 ;; Tracked objects:
  5123 ;;		On entry : 0/0
  5124 ;;		On exit  : 0/0
  5125 ;;		Unchanged: 0/0
  5126 ;; Data sizes:     COMRAM   BANK0   BANK1   BANK2   BANK3   BANK4   BANK5   BANK6   BANK7   BANK8   BANK9  BANK10  BANK1
      +1  BANK12  BANK13  BANK14  BANK15
  5127 ;;      Params:         0       0       0       0       0       0       0       0       0       0       0       0       
      +0       0       0       0       0
  5128 ;;      Locals:         0       0       0       0       0       0       0       0       0       0       0       0       
      +0       0       0       0       0
  5129 ;;      Temps:          0       1       0       0       0       0       0       0       0       0       0       0       
      +0       0       0       0       0
  5130 ;;      Totals:         0       1       0       0       0       0       0       0       0       0       0       0       
      +0       0       0       0       0
  5131 ;;Total ram usage:        1 bytes
  5132 ;; Hardware stack levels used:    1
  5133 ;; Hardware stack levels required when called:    3
  5134 ;; This function calls:
  5135 ;;		_Config_Timer0
  5136 ;;		_Config_Timer2
  5137 ;;		_Configure_PWM2
  5138 ;;		_Configure_PWM3
  5139 ;;		_SPI_SLAVE1
  5140 ;; This function is called by:
  5141 ;;		_main
  5142 ;; This function uses a non-reentrant model
  5143 ;;
  5144                           
  5145                           	psect	text13
  5146  002C7C                     __ptext13:
  5147                           	opt stack 0
  5148  002C7C                     _Configure_HW:
  5149                           	opt stack 27
  5150                           
  5151                           ;main.c: 394: ANSELA = 0b00000011;
  5152                           
  5153                           ; BSR set to: 0
  5154                           ;incstack = 0
  5155  002C7C  0E03               	movlw	3
  5156  002C7E  010F               	movlb	15	; () banked
  5157  002C80  6F38               	movwf	56,b	;volatile
  5158                           
  5159                           ;main.c: 395: ANSELB = 0x00;
  5160  002C82  0E00               	movlw	0
  5161  002C84  6F39               	movwf	57,b	;volatile
  5162                           
  5163                           ;main.c: 396: ANSELC = 0x00;
  5164  002C86  0E00               	movlw	0
  5165  002C88  6F3A               	movwf	58,b	;volatile
  5166                           
  5167                           ;main.c: 397: ANSELD = 0x00;
  5168  002C8A  0E00               	movlw	0
  5169  002C8C  6F3B               	movwf	59,b	;volatile
  5170                           
  5171                           ;main.c: 398: ANSELE = 0x00;
  5172  002C8E  0E00               	movlw	0
  5173  002C90  6F3C               	movwf	60,b	;volatile
  5174                           
  5175                           ;main.c: 401: TRISA = 0b11110111;
  5176  002C92  0EF7               	movlw	247
  5177  002C94  6E92               	movwf	3986,c	;volatile
  5178                           
  5179                           ;main.c: 402: TRISB = 0b00010001;
  5180  002C96  0E11               	movlw	17
  5181  002C98  6E93               	movwf	3987,c	;volatile
  5182                           
  5183                           ;main.c: 403: TRISC = 0x00;
  5184  002C9A  0E00               	movlw	0
  5185  002C9C  6E94               	movwf	3988,c	;volatile
  5186                           
  5187                           ;main.c: 405: TRISD = 0x00;
  5188  002C9E  0E00               	movlw	0
  5189  002CA0  6E95               	movwf	3989,c	;volatile
  5190                           
  5191                           ;main.c: 406: TRISE = 0x00;
  5192  002CA2  0E00               	movlw	0
  5193  002CA4  6E96               	movwf	3990,c	;volatile
  5194                           
  5195                           ; BSR set to: 15
  5196                           ;main.c: 407: _delay((unsigned long)((1)*(40000000/4000.0)));
  5197  002CA6  0E0D               	movlw	13
  5198  002CA8  0100               	movlb	0	; () banked
  5199  002CAA  6F60               	movwf	??_Configure_HW& (0+255),b
  5200  002CAC  0EFB               	movlw	251
  5201  002CAE                     u3987:
  5202  002CAE  2EE8               	decfsz	wreg,f,c
  5203  002CB0  D7FE               	bra	u3987
  5204  002CB2  2F60               	decfsz	??_Configure_HW& (0+255),f,b
  5205  002CB4  D7FC               	bra	u3987
  5206  002CB6  D000               	nop2	
  5207                           
  5208                           ;main.c: 410: SPI_SLAVE1();
  5209  002CB8  EC0F  F017         	call	_SPI_SLAVE1	;wreg free
  5210                           
  5211                           ;main.c: 412: ADCON0 = 0b00000101;
  5212  002CBC  0E05               	movlw	5
  5213  002CBE  6EC2               	movwf	4034,c	;volatile
  5214                           
  5215                           ;main.c: 413: ADCON1 = 0b00000000;
  5216  002CC0  0E00               	movlw	0
  5217  002CC2  6EC1               	movwf	4033,c	;volatile
  5218                           
  5219                           ;main.c: 414: ADCON2 = 0b10100101;
  5220  002CC4  0EA5               	movlw	165
  5221  002CC6  6EC0               	movwf	4032,c	;volatile
  5222                           
  5223                           ;main.c: 417: Configure_PWM2();
  5224  002CC8  ECF6  F016         	call	_Configure_PWM2	;wreg free
  5225                           
  5226                           ;main.c: 418: Configure_PWM3();
  5227  002CCC  ECE6  F016         	call	_Configure_PWM3	;wreg free
  5228                           
  5229                           ;main.c: 419: Config_Timer0();
  5230  002CD0  EC18  F017         	call	_Config_Timer0	;wreg free
  5231                           
  5232                           ;main.c: 420: Config_Timer2();
  5233  002CD4  EC21  F017         	call	_Config_Timer2	;wreg free
  5234  002CD8  0012               	return		;funcret
  5235  002CDA                     __end_of_Configure_HW:
  5236                           	opt stack 0
  5237                           tblptru	equ	0xFF8
  5238                           tblptrh	equ	0xFF7
  5239                           tblptrl	equ	0xFF6
  5240                           tablat	equ	0xFF5
  5241                           prodh	equ	0xFF4
  5242                           prodl	equ	0xFF3
  5243                           intcon	equ	0xFF2
  5244                           postinc0	equ	0xFEE
  5245                           wreg	equ	0xFE8
  5246                           postdec1	equ	0xFE5
  5247                           fsr1l	equ	0xFE1
  5248                           postinc2	equ	0xFDE
  5249                           postdec2	equ	0xFDD
  5250                           fsr2h	equ	0xFDA
  5251                           fsr2l	equ	0xFD9
  5252                           status	equ	0xFD8
  5253                           
  5254 ;; *************** function _SPI_SLAVE1 *****************
  5255 ;; Defined at:
  5256 ;;		line 65 in file "SPI_XC8.c"
  5257 ;; Parameters:    Size  Location     Type
  5258 ;;		None
  5259 ;; Auto vars:     Size  Location     Type
  5260 ;;		None
  5261 ;; Return value:  Size  Location     Type
  5262 ;;                  1    wreg      void 
  5263 ;; Registers used:
  5264 ;;		wreg, status,2
  5265 ;; Tracked objects:
  5266 ;;		On entry : 0/0
  5267 ;;		On exit  : 0/0
  5268 ;;		Unchanged: 0/0
  5269 ;; Data sizes:     COMRAM   BANK0   BANK1   BANK2   BANK3   BANK4   BANK5   BANK6   BANK7   BANK8   BANK9  BANK10  BANK1
      +1  BANK12  BANK13  BANK14  BANK15
  5270 ;;      Params:         0       0       0       0       0       0       0       0       0       0       0       0       
      +0       0       0       0       0
  5271 ;;      Locals:         0       0       0       0       0       0       0       0       0       0       0       0       
      +0       0       0       0       0
  5272 ;;      Temps:          0       0       0       0       0       0       0       0       0       0       0       0       
      +0       0       0       0       0
  5273 ;;      Totals:         0       0       0       0       0       0       0       0       0       0       0       0       
      +0       0       0       0       0
  5274 ;;Total ram usage:        0 bytes
  5275 ;; Hardware stack levels used:    1
  5276 ;; Hardware stack levels required when called:    2
  5277 ;; This function calls:
  5278 ;;		Nothing
  5279 ;; This function is called by:
  5280 ;;		_Configure_HW
  5281 ;; This function uses a non-reentrant model
  5282 ;;
  5283                           
  5284                           	psect	text14
  5285  002E1E                     __ptext14:
  5286                           	opt stack 0
  5287  002E1E                     _SPI_SLAVE1:
  5288                           	opt stack 27
  5289                           
  5290                           ;SPI_XC8.c: 67: SSP1CON1 = 0b00110100;
  5291                           
  5292                           ;incstack = 0
  5293  002E1E  0E34               	movlw	52
  5294  002E20  6EC6               	movwf	4038,c	;volatile
  5295                           
  5296                           ;SPI_XC8.c: 68: SSP1STAT = 0b01000000;
  5297  002E22  0E40               	movlw	64
  5298  002E24  6EC7               	movwf	4039,c	;volatile
  5299                           
  5300                           ;SPI_XC8.c: 69: TRISA5 = 1;
  5301  002E26  8A92               	bsf	3986,5,c	;volatile
  5302                           
  5303                           ;SPI_XC8.c: 70: TRISC3 = 1;
  5304  002E28  8694               	bsf	3988,3,c	;volatile
  5305                           
  5306                           ;SPI_XC8.c: 71: TRISC4 = 1;
  5307  002E2A  8894               	bsf	3988,4,c	;volatile
  5308                           
  5309                           ;SPI_XC8.c: 72: TRISC5 = 0;
  5310  002E2C  9A94               	bcf	3988,5,c	;volatile
  5311  002E2E  0012               	return		;funcret
  5312  002E30                     __end_of_SPI_SLAVE1:
  5313                           	opt stack 0
  5314                           tblptru	equ	0xFF8
  5315                           tblptrh	equ	0xFF7
  5316                           tblptrl	equ	0xFF6
  5317                           tablat	equ	0xFF5
  5318                           prodh	equ	0xFF4
  5319                           prodl	equ	0xFF3
  5320                           intcon	equ	0xFF2
  5321                           postinc0	equ	0xFEE
  5322                           wreg	equ	0xFE8
  5323                           postdec1	equ	0xFE5
  5324                           fsr1l	equ	0xFE1
  5325                           postinc2	equ	0xFDE
  5326                           postdec2	equ	0xFDD
  5327                           fsr2h	equ	0xFDA
  5328                           fsr2l	equ	0xFD9
  5329                           status	equ	0xFD8
  5330                           
  5331 ;; *************** function _Configure_PWM3 *****************
  5332 ;; Defined at:
  5333 ;;		line 68 in file "PWM_K22.c"
  5334 ;; Parameters:    Size  Location     Type
  5335 ;;		None
  5336 ;; Auto vars:     Size  Location     Type
  5337 ;;		None
  5338 ;; Return value:  Size  Location     Type
  5339 ;;                  1    wreg      void 
  5340 ;; Registers used:
  5341 ;;		wreg, status,2
  5342 ;; Tracked objects:
  5343 ;;		On entry : 0/0
  5344 ;;		On exit  : 0/0
  5345 ;;		Unchanged: 0/0
  5346 ;; Data sizes:     COMRAM   BANK0   BANK1   BANK2   BANK3   BANK4   BANK5   BANK6   BANK7   BANK8   BANK9  BANK10  BANK1
      +1  BANK12  BANK13  BANK14  BANK15
  5347 ;;      Params:         0       0       0       0       0       0       0       0       0       0       0       0       
      +0       0       0       0       0
  5348 ;;      Locals:         0       0       0       0       0       0       0       0       0       0       0       0       
      +0       0       0       0       0
  5349 ;;      Temps:          0       0       0       0       0       0       0       0       0       0       0       0       
      +0       0       0       0       0
  5350 ;;      Totals:         0       0       0       0       0       0       0       0       0       0       0       0       
      +0       0       0       0       0
  5351 ;;Total ram usage:        0 bytes
  5352 ;; Hardware stack levels used:    1
  5353 ;; Hardware stack levels required when called:    2
  5354 ;; This function calls:
  5355 ;;		Nothing
  5356 ;; This function is called by:
  5357 ;;		_Configure_HW
  5358 ;; This function uses a non-reentrant model
  5359 ;;
  5360                           
  5361                           	psect	text15
  5362  002DCC                     __ptext15:
  5363                           	opt stack 0
  5364  002DCC                     _Configure_PWM3:
  5365                           	opt stack 27
  5366                           
  5367                           ;PWM_K22.c: 73: CCP3CON = 0x1C;
  5368                           
  5369                           ;incstack = 0
  5370  002DCC  0E1C               	movlw	28
  5371  002DCE  010F               	movlb	15	; () banked
  5372  002DD0  6F5D               	movwf	93,b	;volatile
  5373                           
  5374                           ;PWM_K22.c: 76: CCPR3L = 0x0C;
  5375  002DD2  0E0C               	movlw	12
  5376  002DD4  6F5E               	movwf	94,b	;volatile
  5377                           
  5378                           ;PWM_K22.c: 79: CCPR3H = 0x00;
  5379  002DD6  0E00               	movlw	0
  5380  002DD8  6F5F               	movwf	95,b	;volatile
  5381                           
  5382                           ;PWM_K22.c: 81: PR2 = 74;
  5383  002DDA  0E4A               	movlw	74
  5384  002DDC  6EBB               	movwf	4027,c	;volatile
  5385                           
  5386                           ; BSR set to: 15
  5387                           ;PWM_K22.c: 84: ECCP3ASbits.CCP3ASE = 0;
  5388  002DDE  9F5B               	bcf	91,7,b	;volatile
  5389                           
  5390                           ; BSR set to: 15
  5391                           ;PWM_K22.c: 85: ECCP3ASbits.CCP3AS = 0;
  5392  002DE0  995B               	bcf	91,4,b	;volatile
  5393  002DE2  9B5B               	bcf	91,5,b	;volatile
  5394  002DE4  9D5B               	bcf	91,6,b	;volatile
  5395                           
  5396                           ; BSR set to: 15
  5397                           ;PWM_K22.c: 95: CCPTMRS0bits.C3TSEL0 = 0;
  5398  002DE6  9D49               	bcf	73,6,b	;volatile
  5399                           
  5400                           ; BSR set to: 15
  5401                           ;PWM_K22.c: 96: CCPTMRS0bits.C3TSEL1 = 0;
  5402  002DE8  9F49               	bcf	73,7,b	;volatile
  5403                           
  5404                           ; BSR set to: 15
  5405  002DEA  0012               	return		;funcret
  5406  002DEC                     __end_of_Configure_PWM3:
  5407                           	opt stack 0
  5408                           tblptru	equ	0xFF8
  5409                           tblptrh	equ	0xFF7
  5410                           tblptrl	equ	0xFF6
  5411                           tablat	equ	0xFF5
  5412                           prodh	equ	0xFF4
  5413                           prodl	equ	0xFF3
  5414                           intcon	equ	0xFF2
  5415                           postinc0	equ	0xFEE
  5416                           wreg	equ	0xFE8
  5417                           postdec1	equ	0xFE5
  5418                           fsr1l	equ	0xFE1
  5419                           postinc2	equ	0xFDE
  5420                           postdec2	equ	0xFDD
  5421                           fsr2h	equ	0xFDA
  5422                           fsr2l	equ	0xFD9
  5423                           status	equ	0xFD8
  5424                           
  5425 ;; *************** function _Configure_PWM2 *****************
  5426 ;; Defined at:
  5427 ;;		line 37 in file "PWM_K22.c"
  5428 ;; Parameters:    Size  Location     Type
  5429 ;;		None
  5430 ;; Auto vars:     Size  Location     Type
  5431 ;;		None
  5432 ;; Return value:  Size  Location     Type
  5433 ;;                  1    wreg      void 
  5434 ;; Registers used:
  5435 ;;		wreg, status,2
  5436 ;; Tracked objects:
  5437 ;;		On entry : 0/0
  5438 ;;		On exit  : 0/0
  5439 ;;		Unchanged: 0/0
  5440 ;; Data sizes:     COMRAM   BANK0   BANK1   BANK2   BANK3   BANK4   BANK5   BANK6   BANK7   BANK8   BANK9  BANK10  BANK1
      +1  BANK12  BANK13  BANK14  BANK15
  5441 ;;      Params:         0       0       0       0       0       0       0       0       0       0       0       0       
      +0       0       0       0       0
  5442 ;;      Locals:         0       0       0       0       0       0       0       0       0       0       0       0       
      +0       0       0       0       0
  5443 ;;      Temps:          0       0       0       0       0       0       0       0       0       0       0       0       
      +0       0       0       0       0
  5444 ;;      Totals:         0       0       0       0       0       0       0       0       0       0       0       0       
      +0       0       0       0       0
  5445 ;;Total ram usage:        0 bytes
  5446 ;; Hardware stack levels used:    1
  5447 ;; Hardware stack levels required when called:    2
  5448 ;; This function calls:
  5449 ;;		Nothing
  5450 ;; This function is called by:
  5451 ;;		_Configure_HW
  5452 ;; This function uses a non-reentrant model
  5453 ;;
  5454                           
  5455                           	psect	text16
  5456  002DEC                     __ptext16:
  5457                           	opt stack 0
  5458  002DEC                     _Configure_PWM2:
  5459                           	opt stack 27
  5460                           
  5461                           ;PWM_K22.c: 42: CCP2CON = 0x1C;
  5462                           
  5463                           ; BSR set to: 15
  5464                           ;incstack = 0
  5465  002DEC  0E1C               	movlw	28
  5466  002DEE  6E66               	movwf	3942,c	;volatile
  5467                           
  5468                           ;PWM_K22.c: 45: CCPR2L = 0x0C;
  5469  002DF0  0E0C               	movlw	12
  5470  002DF2  6E67               	movwf	3943,c	;volatile
  5471                           
  5472                           ;PWM_K22.c: 48: CCPR2H = 0x00;
  5473  002DF4  0E00               	movlw	0
  5474  002DF6  6E68               	movwf	3944,c	;volatile
  5475                           
  5476                           ;PWM_K22.c: 51: PR2 = 250;
  5477  002DF8  0EFA               	movlw	250
  5478  002DFA  6EBB               	movwf	4027,c	;volatile
  5479                           
  5480                           ;PWM_K22.c: 54: ECCP2ASbits.CCP2ASE = 0;
  5481  002DFC  9E64               	bcf	3940,7,c	;volatile
  5482                           
  5483                           ;PWM_K22.c: 55: ECCP2ASbits.CCP2AS = 0;
  5484  002DFE  9864               	bcf	3940,4,c	;volatile
  5485  002E00  9A64               	bcf	3940,5,c	;volatile
  5486  002E02  9C64               	bcf	3940,6,c	;volatile
  5487                           
  5488                           ;PWM_K22.c: 64: CCPTMRS0bits.C2TSEL0 = 0;
  5489  002E04  010F               	movlb	15	; () banked
  5490  002E06  9749               	bcf	73,3,b	;volatile
  5491                           
  5492                           ; BSR set to: 15
  5493                           ;PWM_K22.c: 65: CCPTMRS0bits.C2TSEL1 = 0;
  5494  002E08  9949               	bcf	73,4,b	;volatile
  5495                           
  5496                           ; BSR set to: 15
  5497  002E0A  0012               	return		;funcret
  5498  002E0C                     __end_of_Configure_PWM2:
  5499                           	opt stack 0
  5500                           tblptru	equ	0xFF8
  5501                           tblptrh	equ	0xFF7
  5502                           tblptrl	equ	0xFF6
  5503                           tablat	equ	0xFF5
  5504                           prodh	equ	0xFF4
  5505                           prodl	equ	0xFF3
  5506                           intcon	equ	0xFF2
  5507                           postinc0	equ	0xFEE
  5508                           wreg	equ	0xFE8
  5509                           postdec1	equ	0xFE5
  5510                           fsr1l	equ	0xFE1
  5511                           postinc2	equ	0xFDE
  5512                           postdec2	equ	0xFDD
  5513                           fsr2h	equ	0xFDA
  5514                           fsr2l	equ	0xFD9
  5515                           status	equ	0xFD8
  5516                           
  5517 ;; *************** function _Config_Timer2 *****************
  5518 ;; Defined at:
  5519 ;;		line 121 in file "TIMERS_XC8.c"
  5520 ;; Parameters:    Size  Location     Type
  5521 ;;		None
  5522 ;; Auto vars:     Size  Location     Type
  5523 ;;		None
  5524 ;; Return value:  Size  Location     Type
  5525 ;;                  1    wreg      void 
  5526 ;; Registers used:
  5527 ;;		None
  5528 ;; Tracked objects:
  5529 ;;		On entry : 0/0
  5530 ;;		On exit  : 0/0
  5531 ;;		Unchanged: 0/0
  5532 ;; Data sizes:     COMRAM   BANK0   BANK1   BANK2   BANK3   BANK4   BANK5   BANK6   BANK7   BANK8   BANK9  BANK10  BANK1
      +1  BANK12  BANK13  BANK14  BANK15
  5533 ;;      Params:         0       0       0       0       0       0       0       0       0       0       0       0       
      +0       0       0       0       0
  5534 ;;      Locals:         0       0       0       0       0       0       0       0       0       0       0       0       
      +0       0       0       0       0
  5535 ;;      Temps:          0       0       0       0       0       0       0       0       0       0       0       0       
      +0       0       0       0       0
  5536 ;;      Totals:         0       0       0       0       0       0       0       0       0       0       0       0       
      +0       0       0       0       0
  5537 ;;Total ram usage:        0 bytes
  5538 ;; Hardware stack levels used:    1
  5539 ;; Hardware stack levels required when called:    2
  5540 ;; This function calls:
  5541 ;;		Nothing
  5542 ;; This function is called by:
  5543 ;;		_Configure_HW
  5544 ;; This function uses a non-reentrant model
  5545 ;;
  5546                           
  5547                           	psect	text17
  5548  002E42                     __ptext17:
  5549                           	opt stack 0
  5550  002E42                     _Config_Timer2:
  5551                           	opt stack 27
  5552                           
  5553                           ;TIMERS_XC8.c: 140: T2CONbits.T2OUTPS0 = 1;
  5554                           
  5555                           ; BSR set to: 15
  5556                           ;incstack = 0
  5557  002E42  86BA               	bsf	4026,3,c	;volatile
  5558                           
  5559                           ;TIMERS_XC8.c: 141: T2CONbits.T2OUTPS1 = 1;
  5560  002E44  88BA               	bsf	4026,4,c	;volatile
  5561                           
  5562                           ;TIMERS_XC8.c: 142: T2CONbits.T2OUTPS2 = 1;
  5563  002E46  8ABA               	bsf	4026,5,c	;volatile
  5564                           
  5565                           ;TIMERS_XC8.c: 143: T2CONbits.T2OUTPS3 = 1;
  5566  002E48  8CBA               	bsf	4026,6,c	;volatile
  5567                           
  5568                           ;TIMERS_XC8.c: 149: T2CONbits.T2CKPS0 = 1;
  5569  002E4A  80BA               	bsf	4026,0,c	;volatile
  5570                           
  5571                           ;TIMERS_XC8.c: 150: T2CONbits.T2CKPS1 = 1;
  5572  002E4C  82BA               	bsf	4026,1,c	;volatile
  5573                           
  5574                           ;TIMERS_XC8.c: 152: T2CONbits.TMR2ON = 1;
  5575  002E4E  84BA               	bsf	4026,2,c	;volatile
  5576  002E50  0012               	return		;funcret
  5577  002E52                     __end_of_Config_Timer2:
  5578                           	opt stack 0
  5579                           tblptru	equ	0xFF8
  5580                           tblptrh	equ	0xFF7
  5581                           tblptrl	equ	0xFF6
  5582                           tablat	equ	0xFF5
  5583                           prodh	equ	0xFF4
  5584                           prodl	equ	0xFF3
  5585                           intcon	equ	0xFF2
  5586                           postinc0	equ	0xFEE
  5587                           wreg	equ	0xFE8
  5588                           postdec1	equ	0xFE5
  5589                           fsr1l	equ	0xFE1
  5590                           postinc2	equ	0xFDE
  5591                           postdec2	equ	0xFDD
  5592                           fsr2h	equ	0xFDA
  5593                           fsr2l	equ	0xFD9
  5594                           status	equ	0xFD8
  5595                           
  5596 ;; *************** function _Config_Timer0 *****************
  5597 ;; Defined at:
  5598 ;;		line 260 in file "TIMERS_XC8.c"
  5599 ;; Parameters:    Size  Location     Type
  5600 ;;		None
  5601 ;; Auto vars:     Size  Location     Type
  5602 ;;		None
  5603 ;; Return value:  Size  Location     Type
  5604 ;;                  1    wreg      void 
  5605 ;; Registers used:
  5606 ;;		None
  5607 ;; Tracked objects:
  5608 ;;		On entry : 0/0
  5609 ;;		On exit  : 0/0
  5610 ;;		Unchanged: 0/0
  5611 ;; Data sizes:     COMRAM   BANK0   BANK1   BANK2   BANK3   BANK4   BANK5   BANK6   BANK7   BANK8   BANK9  BANK10  BANK1
      +1  BANK12  BANK13  BANK14  BANK15
  5612 ;;      Params:         0       0       0       0       0       0       0       0       0       0       0       0       
      +0       0       0       0       0
  5613 ;;      Locals:         0       0       0       0       0       0       0       0       0       0       0       0       
      +0       0       0       0       0
  5614 ;;      Temps:          0       0       0       0       0       0       0       0       0       0       0       0       
      +0       0       0       0       0
  5615 ;;      Totals:         0       0       0       0       0       0       0       0       0       0       0       0       
      +0       0       0       0       0
  5616 ;;Total ram usage:        0 bytes
  5617 ;; Hardware stack levels used:    1
  5618 ;; Hardware stack levels required when called:    2
  5619 ;; This function calls:
  5620 ;;		Nothing
  5621 ;; This function is called by:
  5622 ;;		_Configure_HW
  5623 ;; This function uses a non-reentrant model
  5624 ;;
  5625                           
  5626                           	psect	text18
  5627  002E30                     __ptext18:
  5628                           	opt stack 0
  5629  002E30                     _Config_Timer0:
  5630                           	opt stack 27
  5631                           
  5632                           ;TIMERS_XC8.c: 262: T0CONbits.T0PS0 = 0;
  5633                           
  5634                           ;incstack = 0
  5635  002E30  90D5               	bcf	4053,0,c	;volatile
  5636                           
  5637                           ;TIMERS_XC8.c: 263: T0CONbits.T0PS1 = 1;
  5638  002E32  82D5               	bsf	4053,1,c	;volatile
  5639                           
  5640                           ;TIMERS_XC8.c: 264: T0CONbits.T0PS2 = 0;
  5641  002E34  94D5               	bcf	4053,2,c	;volatile
  5642                           
  5643                           ;TIMERS_XC8.c: 275: T0CONbits.T08BIT = 0;
  5644  002E36  9CD5               	bcf	4053,6,c	;volatile
  5645                           
  5646                           ;TIMERS_XC8.c: 279: T0CONbits.PSA = 0;
  5647  002E38  96D5               	bcf	4053,3,c	;volatile
  5648                           
  5649                           ;TIMERS_XC8.c: 280: T0CONbits.T0SE = 0;
  5650  002E3A  98D5               	bcf	4053,4,c	;volatile
  5651                           
  5652                           ;TIMERS_XC8.c: 281: T0CONbits.T0CS = 0;
  5653  002E3C  9AD5               	bcf	4053,5,c	;volatile
  5654                           
  5655                           ;TIMERS_XC8.c: 283: T0CONbits.TMR0ON = 1;
  5656  002E3E  8ED5               	bsf	4053,7,c	;volatile
  5657  002E40  0012               	return		;funcret
  5658  002E42                     __end_of_Config_Timer0:
  5659                           	opt stack 0
  5660                           tblptru	equ	0xFF8
  5661                           tblptrh	equ	0xFF7
  5662                           tblptrl	equ	0xFF6
  5663                           tablat	equ	0xFF5
  5664                           prodh	equ	0xFF4
  5665                           prodl	equ	0xFF3
  5666                           intcon	equ	0xFF2
  5667                           postinc0	equ	0xFEE
  5668                           wreg	equ	0xFE8
  5669                           postdec1	equ	0xFE5
  5670                           fsr1l	equ	0xFE1
  5671                           postinc2	equ	0xFDE
  5672                           postdec2	equ	0xFDD
  5673                           fsr2h	equ	0xFDA
  5674                           fsr2l	equ	0xFD9
  5675                           status	equ	0xFD8
  5676                           
  5677 ;; *************** function _isr *****************
  5678 ;; Defined at:
  5679 ;;		line 110 in file "main.c"
  5680 ;; Parameters:    Size  Location     Type
  5681 ;;		None
  5682 ;; Auto vars:     Size  Location     Type
  5683 ;;		None
  5684 ;; Return value:  Size  Location     Type
  5685 ;;                  1    wreg      void 
  5686 ;; Registers used:
  5687 ;;		wreg, fsr2l, fsr2h, status,2, status,0, prodl, prodh, cstack
  5688 ;; Tracked objects:
  5689 ;;		On entry : 0/0
  5690 ;;		On exit  : 0/0
  5691 ;;		Unchanged: 0/0
  5692 ;; Data sizes:     COMRAM   BANK0   BANK1   BANK2   BANK3   BANK4   BANK5   BANK6   BANK7   BANK8   BANK9  BANK10  BANK1
      +1  BANK12  BANK13  BANK14  BANK15
  5693 ;;      Params:         0       0       0       0       0       0       0       0       0       0       0       0       
      +0       0       0       0       0
  5694 ;;      Locals:         0       0       0       0       0       0       0       0       0       0       0       0       
      +0       0       0       0       0
  5695 ;;      Temps:         22       0       0       0       0       0       0       0       0       0       0       0       
      +0       0       0       0       0
  5696 ;;      Totals:        22       0       0       0       0       0       0       0       0       0       0       0       
      +0       0       0       0       0
  5697 ;;Total ram usage:       22 bytes
  5698 ;; Hardware stack levels used:    1
  5699 ;; Hardware stack levels required when called:    1
  5700 ;; This function calls:
  5701 ;;		_Set_Timer0
  5702 ;;		i2___fldiv
  5703 ;;		i2___flmul
  5704 ;;		i2___xxtofl
  5705 ;; This function is called by:
  5706 ;;		Interrupt level 2
  5707 ;; This function uses a non-reentrant model
  5708 ;;
  5709                           
  5710                           	psect	intcode
  5711  000008                     __pintcode:
  5712                           	opt stack 0
  5713  000008                     _isr:
  5714                           	opt stack 27
  5715                           
  5716                           ;incstack = 0
  5717  000008  825E               	bsf	btemp,1,c	;set compiler interrupt flag (level 2)
  5718  00000A  CFFA F045          	movff	pclath,??_isr+4
  5719  00000E  CFFB F046          	movff	pclatu,??_isr+5
  5720  000012  CFE9 F047          	movff	fsr0l,??_isr+6
  5721  000016  CFEA F048          	movff	fsr0h,??_isr+7
  5722  00001A  CFE1 F049          	movff	fsr1l,??_isr+8
  5723  00001E  CFE2 F04A          	movff	fsr1h,??_isr+9
  5724  000022  CFD9 F04B          	movff	fsr2l,??_isr+10
  5725  000026  CFDA F04C          	movff	fsr2h,??_isr+11
  5726  00002A  CFF3 F04D          	movff	prodl,??_isr+12
  5727  00002E  CFF4 F04E          	movff	prodh,??_isr+13
  5728  000032  CFF6 F04F          	movff	tblptrl,??_isr+14
  5729  000036  CFF7 F050          	movff	tblptrh,??_isr+15
  5730  00003A  CFF8 F051          	movff	tblptru,??_isr+16
  5731  00003E  CFF5 F052          	movff	tablat,??_isr+17
  5732  000042  C05E  F053         	movff	btemp,??_isr+18
  5733  000046  C05F  F054         	movff	btemp+1,??_isr+19
  5734  00004A  C060  F055         	movff	btemp+2,??_isr+20
  5735  00004E  C061  F056         	movff	btemp+3,??_isr+21
  5736                           
  5737                           ;main.c: 112: if(INTCONbits.TMR0IF && INTCONbits.TMR0IE){
  5738  000052  B4F2               	btfsc	intcon,2,c	;volatile
  5739  000054  AAF2               	btfss	intcon,5,c	;volatile
  5740  000056  D014               	goto	i2l167
  5741                           
  5742                           ;main.c: 113: (INTCONbits.TMR0IF = 0);
  5743  000058  94F2               	bcf	intcon,2,c	;volatile
  5744                           
  5745                           ;main.c: 114: Set_Timer0(64286);
  5746  00005A  0EFB               	movlw	251
  5747  00005C  6E02               	movwf	Set_Timer0@data_timer+1,c
  5748  00005E  0E1E               	movlw	30
  5749  000060  6E01               	movwf	Set_Timer0@data_timer,c
  5750  000062  EC29  F017         	call	_Set_Timer0	;wreg free
  5751                           
  5752                           ;main.c: 116: if (counter == 10)
  5753  000066  0E0A               	movlw	10
  5754  000068  1859               	xorwf	_counter,w,c
  5755  00006A  A4D8               	btfss	status,2,c
  5756  00006C  D006               	goto	i2l168
  5757                           
  5758                           ;main.c: 117: {
  5759                           ;main.c: 119: EnableControl = 1;
  5760  00006E  0E01               	movlw	1
  5761  000070  0100               	movlb	0	; () banked
  5762  000072  6FE5               	movwf	_EnableControl& (0+255),b
  5763                           
  5764                           ;main.c: 120: counter = 0;
  5765  000074  0E00               	movlw	0
  5766  000076  6E59               	movwf	_counter,c
  5767                           
  5768                           ;main.c: 134: }
  5769  000078  D001               	goto	i2l169
  5770  00007A                     i2l168:
  5771                           
  5772                           ;main.c: 135: else
  5773                           ;main.c: 136: {
  5774                           ;main.c: 137: counter++;
  5775                           
  5776                           ; BSR set to: 0
  5777  00007A  2A59               	incf	_counter,f,c
  5778  00007C                     i2l169:
  5779                           
  5780                           ;main.c: 138: }
  5781                           ;main.c: 139: LATDbits.LATD0 = 1;
  5782  00007C  808C               	bsf	3980,0,c	;volatile
  5783                           
  5784                           ;main.c: 143: LATDbits.LATD0 = 0;
  5785  00007E  908C               	bcf	3980,0,c	;volatile
  5786  000080                     i2l167:
  5787                           
  5788                           ;main.c: 146: }
  5789                           ;main.c: 148: if(PIR1bits.SSP1IF && PIE1bits.SSP1IE){
  5790  000080  B69E               	btfsc	3998,3,c	;volatile
  5791  000082  A69D               	btfss	3997,3,c	;volatile
  5792  000084  D090               	goto	i2l170
  5793                           
  5794                           ;main.c: 169: (PIE1bits.SSP1IE = 0);
  5795  000086  969D               	bcf	3997,3,c	;volatile
  5796                           
  5797                           ;main.c: 170: (PIR1bits.SSP1IF = 0);
  5798  000088  969E               	bcf	3998,3,c	;volatile
  5799                           
  5800                           ;main.c: 172: valor[spi_ctr] = SSP1BUF;
  5801  00008A  50C9               	movf	4041,w,c	;volatile
  5802  00008C  6E41               	movwf	??_isr& (0+255),c
  5803  00008E  6A42               	clrf	(??_isr+1)& (0+255),c
  5804  000090  90D8               	bcf	status,0,c
  5805  000092  3457               	rlcf	_spi_ctr,w,c
  5806  000094  6ED9               	movwf	fsr2l,c
  5807  000096  3458               	rlcf	_spi_ctr+1,w,c
  5808  000098  6EDA               	movwf	fsr2h,c
  5809  00009A  0ED0               	movlw	low _valor
  5810  00009C  26D9               	addwf	fsr2l,f,c
  5811  00009E  0E00               	movlw	high _valor
  5812  0000A0  22DA               	addwfc	fsr2h,f,c
  5813  0000A2  C041  FFDE         	movff	??_isr,postinc2
  5814  0000A6  C042  FFDD         	movff	??_isr+1,postdec2
  5815                           
  5816                           ;main.c: 173: ValorTotal = ValorTotal + valor[spi_ctr];
  5817  0000AA  90D8               	bcf	status,0,c
  5818  0000AC  3457               	rlcf	_spi_ctr,w,c
  5819  0000AE  6ED9               	movwf	fsr2l,c
  5820  0000B0  3458               	rlcf	_spi_ctr+1,w,c
  5821  0000B2  6EDA               	movwf	fsr2h,c
  5822  0000B4  0ED0               	movlw	low _valor
  5823  0000B6  26D9               	addwf	fsr2l,f,c
  5824  0000B8  0E00               	movlw	high _valor
  5825  0000BA  22DA               	addwfc	fsr2h,f,c
  5826  0000BC  CFDE F041          	movff	postinc2,??_isr
  5827  0000C0  CFDD F042          	movff	postdec2,??_isr+1
  5828  0000C4  505C               	movf	_ValorTotal,w,c
  5829  0000C6  2441               	addwf	??_isr,w,c
  5830  0000C8  6E5C               	movwf	_ValorTotal,c
  5831  0000CA  505D               	movf	_ValorTotal+1,w,c
  5832  0000CC  2042               	addwfc	??_isr+1,w,c
  5833  0000CE  6E5D               	movwf	_ValorTotal+1,c
  5834                           
  5835                           ;main.c: 174: spi_ctr++;
  5836  0000D0  4A57               	infsnz	_spi_ctr,f,c
  5837  0000D2  2A58               	incf	_spi_ctr+1,f,c
  5838                           
  5839                           ;main.c: 176: LATCbits.LATC0 = !LATCbits.LATC0;
  5840  0000D4  B08B               	btfsc	3979,0,c	;volatile
  5841  0000D6  D003               	goto	i2u374_40
  5842  0000D8  6A41               	clrf	??_isr& (0+255),c
  5843  0000DA  2A41               	incf	??_isr& (0+255),f,c
  5844  0000DC  D001               	goto	i2u375_48
  5845  0000DE                     i2u374_40:
  5846  0000DE  6A41               	clrf	??_isr& (0+255),c
  5847  0000E0                     i2u375_48:
  5848  0000E0  508B               	movf	3979,w,c	;volatile
  5849  0000E2  1841               	xorwf	??_isr,w,c
  5850  0000E4  0BFE               	andlw	-2
  5851  0000E6  1841               	xorwf	??_isr,w,c
  5852  0000E8  6E8B               	movwf	3979,c	;volatile
  5853                           
  5854                           ;main.c: 178: if (spi_ctr < 1)
  5855  0000EA  BE58               	btfsc	_spi_ctr+1,7,c
  5856  0000EC  D005               	goto	i2u376_40
  5857  0000EE  5058               	movf	_spi_ctr+1,w,c
  5858  0000F0  E106               	bnz	i2l3648
  5859  0000F2  0457               	decf	_spi_ctr,w,c
  5860  0000F4  B0D8               	btfsc	status,0,c
  5861  0000F6  D003               	goto	i2l171
  5862  0000F8                     i2u376_40:
  5863                           
  5864                           ;main.c: 179: {
  5865                           ;main.c: 180: (PIR1bits.SSP1IF = 0);
  5866  0000F8  969E               	bcf	3998,3,c	;volatile
  5867                           
  5868                           ;main.c: 181: (PIE1bits.SSP1IE = 1);
  5869  0000FA  869D               	bsf	3997,3,c	;volatile
  5870                           
  5871                           ;main.c: 182: }
  5872  0000FC  D053               	goto	i2l172
  5873  0000FE                     i2l171:
  5874  0000FE                     i2l3648:
  5875                           
  5876                           ;main.c: 183: else
  5877                           ;main.c: 184: {
  5878                           ;main.c: 185: spi_ctr = 0;
  5879  0000FE  0E00               	movlw	0
  5880  000100  6E58               	movwf	_spi_ctr+1,c
  5881  000102  0E00               	movlw	0
  5882  000104  6E57               	movwf	_spi_ctr,c
  5883                           
  5884                           ;main.c: 188: ref_vb = ValorTotal;
  5885  000106  C05C  F0E2         	movff	_ValorTotal,_ref_vb
  5886  00010A  C05D  F0E3         	movff	_ValorTotal+1,_ref_vb+1
  5887                           
  5888                           ;main.c: 190: ValorTotal <<= 2;
  5889  00010E  90D8               	bcf	status,0,c
  5890  000110  365C               	rlcf	_ValorTotal,f,c
  5891  000112  365D               	rlcf	_ValorTotal+1,f,c
  5892  000114  90D8               	bcf	status,0,c
  5893  000116  365C               	rlcf	_ValorTotal,f,c
  5894  000118  365D               	rlcf	_ValorTotal+1,f,c
  5895                           
  5896                           ;main.c: 191: SetPoint = ((90.0f - 0.0f)*(ValorTotal - 117) / (922 - 117)) + 0.0f;
  5897  00011A  0E00               	movlw	0
  5898  00011C  6E13               	movwf	i2___flmul@a,c
  5899  00011E  0E00               	movlw	0
  5900  000120  6E14               	movwf	i2___flmul@a+1,c
  5901  000122  0EB4               	movlw	180
  5902  000124  6E15               	movwf	i2___flmul@a+2,c
  5903  000126  0E42               	movlw	66
  5904  000128  6E16               	movwf	i2___flmul@a+3,c
  5905  00012A  0E8B               	movlw	139
  5906  00012C  6E41               	movwf	??_isr& (0+255),c
  5907  00012E  0EFF               	movlw	255
  5908  000130  6E42               	movwf	(??_isr+1)& (0+255),c
  5909  000132  C05C  F043         	movff	_ValorTotal,??_isr+2
  5910  000136  C05D  F044         	movff	_ValorTotal+1,??_isr+3
  5911  00013A  5041               	movf	??_isr,w,c
  5912  00013C  2643               	addwf	??_isr+2,f,c
  5913  00013E  5042               	movf	??_isr+1,w,c
  5914  000140  2244               	addwfc	??_isr+3,f,c
  5915  000142  C043  F001         	movff	??_isr+2,i2___xxtofl@val
  5916  000146  C044  F002         	movff	??_isr+3,i2___xxtofl@val+1
  5917  00014A  6A03               	clrf	i2___xxtofl@val+2,c
  5918  00014C  6A04               	clrf	i2___xxtofl@val+3,c
  5919  00014E  0E00               	movlw	0
  5920  000150  EC5B  F014         	call	i2___xxtofl
  5921  000154  C001  F00F         	movff	?i2___xxtofl,i2___flmul@b
  5922  000158  C002  F010         	movff	?i2___xxtofl+1,i2___flmul@b+1
  5923  00015C  C003  F011         	movff	?i2___xxtofl+2,i2___flmul@b+2
  5924  000160  C004  F012         	movff	?i2___xxtofl+3,i2___flmul@b+3
  5925  000164  EC93  F00B         	call	i2___flmul	;wreg free
  5926  000168  C00F  F028         	movff	?i2___flmul,i2___fldiv@b
  5927  00016C  C010  F029         	movff	?i2___flmul+1,i2___fldiv@b+1
  5928  000170  C011  F02A         	movff	?i2___flmul+2,i2___fldiv@b+2
  5929  000174  C012  F02B         	movff	?i2___flmul+3,i2___fldiv@b+3
  5930  000178  0E00               	movlw	0
  5931  00017A  6E2C               	movwf	i2___fldiv@a,c
  5932  00017C  0E40               	movlw	64
  5933  00017E  6E2D               	movwf	i2___fldiv@a+1,c
  5934  000180  0E49               	movlw	73
  5935  000182  6E2E               	movwf	i2___fldiv@a+2,c
  5936  000184  0E44               	movlw	68
  5937  000186  6E2F               	movwf	i2___fldiv@a+3,c
  5938  000188  EC35  F010         	call	i2___fldiv	;wreg free
  5939  00018C  C028  F0F0         	movff	?i2___fldiv,_SetPoint
  5940  000190  C029  F0F1         	movff	?i2___fldiv+1,_SetPoint+1
  5941  000194  C02A  F0F2         	movff	?i2___fldiv+2,_SetPoint+2
  5942  000198  C02B  F0F3         	movff	?i2___fldiv+3,_SetPoint+3
  5943                           
  5944                           ;main.c: 201: ValorTotal = 0;
  5945  00019C  0E00               	movlw	0
  5946  00019E  6E5D               	movwf	_ValorTotal+1,c
  5947  0001A0  0E00               	movlw	0
  5948  0001A2  6E5C               	movwf	_ValorTotal,c
  5949  0001A4                     i2l172:
  5950                           
  5951                           ;main.c: 205: }
  5952                           ;main.c: 209: (PIE1bits.SSP1IE = 1);
  5953  0001A4  869D               	bsf	3997,3,c	;volatile
  5954  0001A6                     i2l170:
  5955  0001A6  C056  F061         	movff	??_isr+21,btemp+3
  5956  0001AA  C055  F060         	movff	??_isr+20,btemp+2
  5957  0001AE  C054  F05F         	movff	??_isr+19,btemp+1
  5958  0001B2  C053  F05E         	movff	??_isr+18,btemp
  5959  0001B6  C052  FFF5         	movff	??_isr+17,tablat
  5960  0001BA  C051  FFF8         	movff	??_isr+16,tblptru
  5961  0001BE  C050  FFF7         	movff	??_isr+15,tblptrh
  5962  0001C2  C04F  FFF6         	movff	??_isr+14,tblptrl
  5963  0001C6  C04E  FFF4         	movff	??_isr+13,prodh
  5964  0001CA  C04D  FFF3         	movff	??_isr+12,prodl
  5965  0001CE  C04C  FFDA         	movff	??_isr+11,fsr2h
  5966  0001D2  C04B  FFD9         	movff	??_isr+10,fsr2l
  5967  0001D6  C04A  FFE2         	movff	??_isr+9,fsr1h
  5968  0001DA  C049  FFE1         	movff	??_isr+8,fsr1l
  5969  0001DE  C048  FFEA         	movff	??_isr+7,fsr0h
  5970  0001E2  C047  FFE9         	movff	??_isr+6,fsr0l
  5971  0001E6  C046  FFFB         	movff	??_isr+5,pclatu
  5972  0001EA  C045  FFFA         	movff	??_isr+4,pclath
  5973  0001EE  925E               	bcf	btemp,1,c	;clear compiler interrupt flag (level 2)
  5974  0001F0  0011               	retfie		f
  5975  0001F2                     __end_of_isr:
  5976                           	opt stack 0
  5977                           pclatu	equ	0xFFB
  5978                           pclath	equ	0xFFA
  5979                           tblptru	equ	0xFF8
  5980                           tblptrh	equ	0xFF7
  5981                           tblptrl	equ	0xFF6
  5982                           tablat	equ	0xFF5
  5983                           prodh	equ	0xFF4
  5984                           prodl	equ	0xFF3
  5985                           intcon	equ	0xFF2
  5986                           postinc0	equ	0xFEE
  5987                           fsr0h	equ	0xFEA
  5988                           fsr0l	equ	0xFE9
  5989                           wreg	equ	0xFE8
  5990                           postdec1	equ	0xFE5
  5991                           fsr1h	equ	0xFE2
  5992                           fsr1l	equ	0xFE1
  5993                           postinc2	equ	0xFDE
  5994                           postdec2	equ	0xFDD
  5995                           fsr2h	equ	0xFDA
  5996                           fsr2l	equ	0xFD9
  5997                           status	equ	0xFD8
  5998                           
  5999 ;; *************** function i2___xxtofl *****************
  6000 ;; Defined at:
  6001 ;;		line 10 in file "C:\Program Files (x86)\Microchip\xc8\v1.45\sources\common\xxtofl.c"
  6002 ;; Parameters:    Size  Location     Type
  6003 ;;  sign            1    wreg     unsigned char 
  6004 ;;  val             4    0[COMRAM] long 
  6005 ;; Auto vars:     Size  Location     Type
  6006 ;;  sign            1    8[COMRAM] unsigned char 
  6007 ;;  __xxtofl        4   10[COMRAM] unsigned long 
  6008 ;;  __xxtofl        1    9[COMRAM] unsigned char 
  6009 ;; Return value:  Size  Location     Type
  6010 ;;                  4    0[COMRAM] unsigned char 
  6011 ;; Registers used:
  6012 ;;		wreg, status,2, status,0
  6013 ;; Tracked objects:
  6014 ;;		On entry : 0/0
  6015 ;;		On exit  : 0/0
  6016 ;;		Unchanged: 0/0
  6017 ;; Data sizes:     COMRAM   BANK0   BANK1   BANK2   BANK3   BANK4   BANK5   BANK6   BANK7   BANK8   BANK9  BANK10  BANK1
      +1  BANK12  BANK13  BANK14  BANK15
  6018 ;;      Params:         4       0       0       0       0       0       0       0       0       0       0       0       
      +0       0       0       0       0
  6019 ;;      Locals:         6       0       0       0       0       0       0       0       0       0       0       0       
      +0       0       0       0       0
  6020 ;;      Temps:          4       0       0       0       0       0       0       0       0       0       0       0       
      +0       0       0       0       0
  6021 ;;      Totals:        14       0       0       0       0       0       0       0       0       0       0       0       
      +0       0       0       0       0
  6022 ;;Total ram usage:       14 bytes
  6023 ;; Hardware stack levels used:    1
  6024 ;; This function calls:
  6025 ;;		Nothing
  6026 ;; This function is called by:
  6027 ;;		_isr
  6028 ;; This function uses a non-reentrant model
  6029 ;;
  6030                           
  6031                           	psect	text20
  6032  0028B6                     __ptext20:
  6033                           	opt stack 0
  6034  0028B6                     i2___xxtofl:
  6035                           	opt stack 27
  6036                           
  6037                           ;incstack = 0
  6038                           ;i2___xxtofl@sign stored from wreg
  6039  0028B6  6E09               	movwf	i2___xxtofl@sign,c
  6040  0028B8  5009               	movf	i2___xxtofl@sign,w,c
  6041  0028BA  A4D8               	btfss	status,2,c
  6042  0028BC  AE04               	btfss	i2___xxtofl@val+3,7,c
  6043  0028BE  D01A               	goto	i2l1102
  6044  0028C0  C001  F005         	movff	i2___xxtofl@val,??i2___xxtofl
  6045  0028C4  C002  F006         	movff	i2___xxtofl@val+1,??i2___xxtofl+1
  6046  0028C8  C003  F007         	movff	i2___xxtofl@val+2,??i2___xxtofl+2
  6047  0028CC  C004  F008         	movff	i2___xxtofl@val+3,??i2___xxtofl+3
  6048  0028D0  1E05               	comf	??i2___xxtofl,f,c
  6049  0028D2  1E06               	comf	??i2___xxtofl+1,f,c
  6050  0028D4  1E07               	comf	??i2___xxtofl+2,f,c
  6051  0028D6  1E08               	comf	??i2___xxtofl+3,f,c
  6052  0028D8  2A05               	incf	??i2___xxtofl,f,c
  6053  0028DA  0E00               	movlw	0
  6054  0028DC  2206               	addwfc	??i2___xxtofl+1,f,c
  6055  0028DE  2207               	addwfc	??i2___xxtofl+2,f,c
  6056  0028E0  2208               	addwfc	??i2___xxtofl+3,f,c
  6057  0028E2  C005  F00B         	movff	??i2___xxtofl,i2___xxtofl@arg
  6058  0028E6  C006  F00C         	movff	??i2___xxtofl+1,i2___xxtofl@arg+1
  6059  0028EA  C007  F00D         	movff	??i2___xxtofl+2,i2___xxtofl@arg+2
  6060  0028EE  C008  F00E         	movff	??i2___xxtofl+3,i2___xxtofl@arg+3
  6061  0028F2  D008               	goto	i2l1103
  6062  0028F4                     i2l1102:
  6063  0028F4  C001  F00B         	movff	i2___xxtofl@val,i2___xxtofl@arg
  6064  0028F8  C002  F00C         	movff	i2___xxtofl@val+1,i2___xxtofl@arg+1
  6065  0028FC  C003  F00D         	movff	i2___xxtofl@val+2,i2___xxtofl@arg+2
  6066  002900  C004  F00E         	movff	i2___xxtofl@val+3,i2___xxtofl@arg+3
  6067  002904                     i2l1103:
  6068  002904  5001               	movf	i2___xxtofl@val,w,c
  6069  002906  1002               	iorwf	i2___xxtofl@val+1,w,c
  6070  002908  1003               	iorwf	i2___xxtofl@val+2,w,c
  6071  00290A  1004               	iorwf	i2___xxtofl@val+3,w,c
  6072  00290C  A4D8               	btfss	status,2,c
  6073  00290E  D009               	goto	i2l1104
  6074  002910  0E00               	movlw	0
  6075  002912  6E01               	movwf	?i2___xxtofl,c
  6076  002914  0E00               	movlw	0
  6077  002916  6E02               	movwf	?i2___xxtofl+1,c
  6078  002918  0E00               	movlw	0
  6079  00291A  6E03               	movwf	?i2___xxtofl+2,c
  6080  00291C  0E00               	movlw	0
  6081  00291E  6E04               	movwf	?i2___xxtofl+3,c
  6082  002920  0012               	return	
  6083  002922                     i2l1104:
  6084  002922  0E96               	movlw	150
  6085  002924  6E0A               	movwf	i2___xxtofl@exp,c
  6086  002926  D006               	goto	i2l1106
  6087  002928  2A0A               	incf	i2___xxtofl@exp,f,c
  6088  00292A  90D8               	bcf	status,0,c
  6089  00292C  320E               	rrcf	i2___xxtofl@arg+3,f,c
  6090  00292E  320D               	rrcf	i2___xxtofl@arg+2,f,c
  6091  002930  320C               	rrcf	i2___xxtofl@arg+1,f,c
  6092  002932  320B               	rrcf	i2___xxtofl@arg,f,c
  6093  002934                     i2l1106:
  6094  002934  0E00               	movlw	0
  6095  002936  140B               	andwf	i2___xxtofl@arg,w,c
  6096  002938  6E05               	movwf	??i2___xxtofl& (0+255),c
  6097  00293A  0E00               	movlw	0
  6098  00293C  140C               	andwf	i2___xxtofl@arg+1,w,c
  6099  00293E  6E06               	movwf	(??i2___xxtofl+1)& (0+255),c
  6100  002940  0E00               	movlw	0
  6101  002942  140D               	andwf	i2___xxtofl@arg+2,w,c
  6102  002944  6E07               	movwf	(??i2___xxtofl+2)& (0+255),c
  6103  002946  0EFE               	movlw	254
  6104  002948  140E               	andwf	i2___xxtofl@arg+3,w,c
  6105  00294A  6E08               	movwf	(??i2___xxtofl+3)& (0+255),c
  6106  00294C  5005               	movf	??i2___xxtofl,w,c
  6107  00294E  1006               	iorwf	??i2___xxtofl+1,w,c
  6108  002950  1007               	iorwf	??i2___xxtofl+2,w,c
  6109  002952  1008               	iorwf	??i2___xxtofl+3,w,c
  6110  002954  B4D8               	btfsc	status,2,c
  6111  002956  D00D               	goto	i2l1109
  6112  002958  D7E7               	goto	i2l1107
  6113  00295A  2A0A               	incf	i2___xxtofl@exp,f,c
  6114  00295C  0E01               	movlw	1
  6115  00295E  260B               	addwf	i2___xxtofl@arg,f,c
  6116  002960  0E00               	movlw	0
  6117  002962  220C               	addwfc	i2___xxtofl@arg+1,f,c
  6118  002964  220D               	addwfc	i2___xxtofl@arg+2,f,c
  6119  002966  220E               	addwfc	i2___xxtofl@arg+3,f,c
  6120  002968  90D8               	bcf	status,0,c
  6121  00296A  320E               	rrcf	i2___xxtofl@arg+3,f,c
  6122  00296C  320D               	rrcf	i2___xxtofl@arg+2,f,c
  6123  00296E  320C               	rrcf	i2___xxtofl@arg+1,f,c
  6124  002970  320B               	rrcf	i2___xxtofl@arg,f,c
  6125  002972                     i2l1109:
  6126  002972  0E00               	movlw	0
  6127  002974  140B               	andwf	i2___xxtofl@arg,w,c
  6128  002976  6E05               	movwf	??i2___xxtofl& (0+255),c
  6129  002978  0E00               	movlw	0
  6130  00297A  140C               	andwf	i2___xxtofl@arg+1,w,c
  6131  00297C  6E06               	movwf	(??i2___xxtofl+1)& (0+255),c
  6132  00297E  0E00               	movlw	0
  6133  002980  140D               	andwf	i2___xxtofl@arg+2,w,c
  6134  002982  6E07               	movwf	(??i2___xxtofl+2)& (0+255),c
  6135  002984  0EFF               	movlw	255
  6136  002986  140E               	andwf	i2___xxtofl@arg+3,w,c
  6137  002988  6E08               	movwf	(??i2___xxtofl+3)& (0+255),c
  6138  00298A  5005               	movf	??i2___xxtofl,w,c
  6139  00298C  1006               	iorwf	??i2___xxtofl+1,w,c
  6140  00298E  1007               	iorwf	??i2___xxtofl+2,w,c
  6141  002990  1008               	iorwf	??i2___xxtofl+3,w,c
  6142  002992  B4D8               	btfsc	status,2,c
  6143  002994  D007               	goto	i2l1112
  6144  002996  D7E1               	goto	i2l1110
  6145  002998  060A               	decf	i2___xxtofl@exp,f,c
  6146  00299A  90D8               	bcf	status,0,c
  6147  00299C  360B               	rlcf	i2___xxtofl@arg,f,c
  6148  00299E  360C               	rlcf	i2___xxtofl@arg+1,f,c
  6149  0029A0  360D               	rlcf	i2___xxtofl@arg+2,f,c
  6150  0029A2  360E               	rlcf	i2___xxtofl@arg+3,f,c
  6151  0029A4                     i2l1112:
  6152  0029A4  BE0D               	btfsc	i2___xxtofl@arg+2,7,c
  6153  0029A6  D003               	goto	i2u365_40
  6154  0029A8  0E02               	movlw	2
  6155  0029AA  600A               	cpfslt	i2___xxtofl@exp,c
  6156  0029AC  D7F5               	goto	i2l1113
  6157  0029AE                     i2u365_40:
  6158  0029AE  B00A               	btfsc	i2___xxtofl@exp,0,c
  6159  0029B0  D008               	goto	i2l1117
  6160  0029B2  0EFF               	movlw	255
  6161  0029B4  160B               	andwf	i2___xxtofl@arg,f,c
  6162  0029B6  0EFF               	movlw	255
  6163  0029B8  160C               	andwf	i2___xxtofl@arg+1,f,c
  6164  0029BA  0E7F               	movlw	127
  6165  0029BC  160D               	andwf	i2___xxtofl@arg+2,f,c
  6166  0029BE  0EFF               	movlw	255
  6167  0029C0  160E               	andwf	i2___xxtofl@arg+3,f,c
  6168  0029C2                     i2l1117:
  6169  0029C2  90D8               	bcf	status,0,c
  6170  0029C4  320A               	rrcf	i2___xxtofl@exp,f,c
  6171  0029C6  C00A  F005         	movff	i2___xxtofl@exp,??i2___xxtofl
  6172  0029CA  6A06               	clrf	(??i2___xxtofl+1)& (0+255),c
  6173  0029CC  6A07               	clrf	(??i2___xxtofl+2)& (0+255),c
  6174  0029CE  6A08               	clrf	(??i2___xxtofl+3)& (0+255),c
  6175  0029D0  C005  F008         	movff	??i2___xxtofl,??i2___xxtofl+3
  6176  0029D4  6A07               	clrf	??i2___xxtofl+2,c
  6177  0029D6  6A06               	clrf	??i2___xxtofl+1,c
  6178  0029D8  6A05               	clrf	??i2___xxtofl,c
  6179  0029DA  5005               	movf	??i2___xxtofl,w,c
  6180  0029DC  120B               	iorwf	i2___xxtofl@arg,f,c
  6181  0029DE  5006               	movf	??i2___xxtofl+1,w,c
  6182  0029E0  120C               	iorwf	i2___xxtofl@arg+1,f,c
  6183  0029E2  5007               	movf	??i2___xxtofl+2,w,c
  6184  0029E4  120D               	iorwf	i2___xxtofl@arg+2,f,c
  6185  0029E6  5008               	movf	??i2___xxtofl+3,w,c
  6186  0029E8  120E               	iorwf	i2___xxtofl@arg+3,f,c
  6187  0029EA  5009               	movf	i2___xxtofl@sign,w,c
  6188  0029EC  A4D8               	btfss	status,2,c
  6189  0029EE  AE04               	btfss	i2___xxtofl@val+3,7,c
  6190  0029F0  D001               	goto	i2l1118
  6191  0029F2  8E0E               	bsf	i2___xxtofl@arg+3,7,c
  6192  0029F4                     i2l1118:
  6193  0029F4  C00B  F001         	movff	i2___xxtofl@arg,?i2___xxtofl
  6194  0029F8  C00C  F002         	movff	i2___xxtofl@arg+1,?i2___xxtofl+1
  6195  0029FC  C00D  F003         	movff	i2___xxtofl@arg+2,?i2___xxtofl+2
  6196  002A00  C00E  F004         	movff	i2___xxtofl@arg+3,?i2___xxtofl+3
  6197  002A04  0012               	return	
  6198  002A06                     __end_ofi2___xxtofl:
  6199                           	opt stack 0
  6200                           pclatu	equ	0xFFB
  6201                           pclath	equ	0xFFA
  6202                           tblptru	equ	0xFF8
  6203                           tblptrh	equ	0xFF7
  6204                           tblptrl	equ	0xFF6
  6205                           tablat	equ	0xFF5
  6206                           prodh	equ	0xFF4
  6207                           prodl	equ	0xFF3
  6208                           intcon	equ	0xFF2
  6209                           postinc0	equ	0xFEE
  6210                           fsr0h	equ	0xFEA
  6211                           fsr0l	equ	0xFE9
  6212                           wreg	equ	0xFE8
  6213                           postdec1	equ	0xFE5
  6214                           fsr1h	equ	0xFE2
  6215                           fsr1l	equ	0xFE1
  6216                           postinc2	equ	0xFDE
  6217                           postdec2	equ	0xFDD
  6218                           fsr2h	equ	0xFDA
  6219                           fsr2l	equ	0xFD9
  6220                           status	equ	0xFD8
  6221                           
  6222 ;; *************** function i2___flmul *****************
  6223 ;; Defined at:
  6224 ;;		line 8 in file "C:\Program Files (x86)\Microchip\xc8\v1.45\sources\common\sprcmul.c"
  6225 ;; Parameters:    Size  Location     Type
  6226 ;;  b               4   14[COMRAM] unsigned char 
  6227 ;;  a               4   18[COMRAM] unsigned char 
  6228 ;; Auto vars:     Size  Location     Type
  6229 ;;  __flmul         4   33[COMRAM] struct .
  6230 ;;  __flmul         4   27[COMRAM] unsigned long 
  6231 ;;  __flmul         2   37[COMRAM] struct .
  6232 ;;  __flmul         1   32[COMRAM] unsigned char 
  6233 ;;  __flmul         1   31[COMRAM] unsigned char 
  6234 ;;  __flmul         1   26[COMRAM] unsigned char 
  6235 ;; Return value:  Size  Location     Type
  6236 ;;                  4   14[COMRAM] unsigned char 
  6237 ;; Registers used:
  6238 ;;		wreg, status,2, status,0, prodl, prodh
  6239 ;; Tracked objects:
  6240 ;;		On entry : 0/0
  6241 ;;		On exit  : 0/0
  6242 ;;		Unchanged: 0/0
  6243 ;; Data sizes:     COMRAM   BANK0   BANK1   BANK2   BANK3   BANK4   BANK5   BANK6   BANK7   BANK8   BANK9  BANK10  BANK1
      +1  BANK12  BANK13  BANK14  BANK15
  6244 ;;      Params:         8       0       0       0       0       0       0       0       0       0       0       0       
      +0       0       0       0       0
  6245 ;;      Locals:        13       0       0       0       0       0       0       0       0       0       0       0       
      +0       0       0       0       0
  6246 ;;      Temps:          4       0       0       0       0       0       0       0       0       0       0       0       
      +0       0       0       0       0
  6247 ;;      Totals:        25       0       0       0       0       0       0       0       0       0       0       0       
      +0       0       0       0       0
  6248 ;;Total ram usage:       25 bytes
  6249 ;; Hardware stack levels used:    1
  6250 ;; This function calls:
  6251 ;;		Nothing
  6252 ;; This function is called by:
  6253 ;;		_isr
  6254 ;; This function uses a non-reentrant model
  6255 ;;
  6256                           
  6257                           	psect	text21
  6258  001726                     __ptext21:
  6259                           	opt stack 0
  6260  001726                     i2___flmul:
  6261                           	opt stack 27
  6262                           
  6263                           ;incstack = 0
  6264  001726  5012               	movf	i2___flmul@b+3,w,c
  6265  001728  0B80               	andlw	128
  6266  00172A  6E1B               	movwf	i2___flmul@sign,c
  6267  00172C  5012               	movf	i2___flmul@b+3,w,c
  6268  00172E  2412               	addwf	i2___flmul@b+3,w,c
  6269  001730  6E21               	movwf	i2___flmul@bexp,c
  6270  001732  BE11               	btfsc	i2___flmul@b+2,7,c
  6271  001734  8021               	bsf	i2___flmul@bexp,0,c
  6272  001736  5021               	movf	i2___flmul@bexp,w,c
  6273  001738  B4D8               	btfsc	status,2,c
  6274  00173A  D00D               	goto	i2l1074
  6275  00173C  2821               	incf	i2___flmul@bexp,w,c
  6276  00173E  A4D8               	btfss	status,2,c
  6277  001740  D008               	goto	i2l1075
  6278  001742  0E00               	movlw	0
  6279  001744  6E0F               	movwf	i2___flmul@b,c
  6280  001746  0E00               	movlw	0
  6281  001748  6E10               	movwf	i2___flmul@b+1,c
  6282  00174A  0E00               	movlw	0
  6283  00174C  6E11               	movwf	i2___flmul@b+2,c
  6284  00174E  0E00               	movlw	0
  6285  001750  6E12               	movwf	i2___flmul@b+3,c
  6286  001752                     i2l1075:
  6287  001752  8E11               	bsf	i2___flmul@b+2,7,c
  6288  001754  D008               	goto	i2l1076
  6289  001756                     i2l1074:
  6290  001756  0E00               	movlw	0
  6291  001758  6E0F               	movwf	i2___flmul@b,c
  6292  00175A  0E00               	movlw	0
  6293  00175C  6E10               	movwf	i2___flmul@b+1,c
  6294  00175E  0E00               	movlw	0
  6295  001760  6E11               	movwf	i2___flmul@b+2,c
  6296  001762  0E00               	movlw	0
  6297  001764  6E12               	movwf	i2___flmul@b+3,c
  6298  001766                     i2l1076:
  6299  001766  5016               	movf	i2___flmul@a+3,w,c
  6300  001768  0B80               	andlw	128
  6301  00176A  1A1B               	xorwf	i2___flmul@sign,f,c
  6302  00176C  5016               	movf	i2___flmul@a+3,w,c
  6303  00176E  2416               	addwf	i2___flmul@a+3,w,c
  6304  001770  6E20               	movwf	i2___flmul@aexp,c
  6305  001772  BE15               	btfsc	i2___flmul@a+2,7,c
  6306  001774  8020               	bsf	i2___flmul@aexp,0,c
  6307  001776  5020               	movf	i2___flmul@aexp,w,c
  6308  001778  B4D8               	btfsc	status,2,c
  6309  00177A  D00D               	goto	i2l1078
  6310  00177C  2820               	incf	i2___flmul@aexp,w,c
  6311  00177E  A4D8               	btfss	status,2,c
  6312  001780  D008               	goto	i2l1079
  6313  001782  0E00               	movlw	0
  6314  001784  6E13               	movwf	i2___flmul@a,c
  6315  001786  0E00               	movlw	0
  6316  001788  6E14               	movwf	i2___flmul@a+1,c
  6317  00178A  0E00               	movlw	0
  6318  00178C  6E15               	movwf	i2___flmul@a+2,c
  6319  00178E  0E00               	movlw	0
  6320  001790  6E16               	movwf	i2___flmul@a+3,c
  6321  001792                     i2l1079:
  6322  001792  8E15               	bsf	i2___flmul@a+2,7,c
  6323  001794  D008               	goto	i2l1080
  6324  001796                     i2l1078:
  6325  001796  0E00               	movlw	0
  6326  001798  6E13               	movwf	i2___flmul@a,c
  6327  00179A  0E00               	movlw	0
  6328  00179C  6E14               	movwf	i2___flmul@a+1,c
  6329  00179E  0E00               	movlw	0
  6330  0017A0  6E15               	movwf	i2___flmul@a+2,c
  6331  0017A2  0E00               	movlw	0
  6332  0017A4  6E16               	movwf	i2___flmul@a+3,c
  6333  0017A6                     i2l1080:
  6334  0017A6  5020               	movf	i2___flmul@aexp,w,c
  6335  0017A8  B4D8               	btfsc	status,2,c
  6336  0017AA  D003               	goto	i2u347_40
  6337  0017AC  5021               	movf	i2___flmul@bexp,w,c
  6338  0017AE  A4D8               	btfss	status,2,c
  6339  0017B0  D009               	goto	i2l1081
  6340  0017B2                     i2u347_40:
  6341  0017B2  0E00               	movlw	0
  6342  0017B4  6E0F               	movwf	?i2___flmul,c
  6343  0017B6  0E00               	movlw	0
  6344  0017B8  6E10               	movwf	?i2___flmul+1,c
  6345  0017BA  0E00               	movlw	0
  6346  0017BC  6E11               	movwf	?i2___flmul+2,c
  6347  0017BE  0E00               	movlw	0
  6348  0017C0  6E12               	movwf	?i2___flmul+3,c
  6349  0017C2  0012               	return	
  6350  0017C4                     i2l1081:
  6351  0017C4  5015               	movf	i2___flmul@a+2,w,c
  6352  0017C6  020F               	mulwf	i2___flmul@b,c
  6353  0017C8  CFF3 F026          	movff	prodl,i2___flmul@temp
  6354  0017CC  CFF4 F027          	movff	prodh,i2___flmul@temp+1
  6355  0017D0  5026               	movf	i2___flmul@temp,w,c
  6356  0017D2  6E1C               	movwf	i2___flmul@grs,c
  6357  0017D4  6A1D               	clrf	i2___flmul@grs+1,c
  6358  0017D6  6A1E               	clrf	i2___flmul@grs+2,c
  6359  0017D8  6A1F               	clrf	i2___flmul@grs+3,c
  6360  0017DA  5027               	movf	i2___flmul@temp+1,w,c
  6361  0017DC  6E22               	movwf	i2___flmul@prod,c
  6362  0017DE  6A23               	clrf	i2___flmul@prod+1,c
  6363  0017E0  6A24               	clrf	i2___flmul@prod+2,c
  6364  0017E2  6A25               	clrf	i2___flmul@prod+3,c
  6365  0017E4  5014               	movf	i2___flmul@a+1,w,c
  6366  0017E6  0210               	mulwf	i2___flmul@b+1,c
  6367  0017E8  CFF3 F026          	movff	prodl,i2___flmul@temp
  6368  0017EC  CFF4 F027          	movff	prodh,i2___flmul@temp+1
  6369  0017F0  5026               	movf	i2___flmul@temp,w,c
  6370  0017F2  261C               	addwf	i2___flmul@grs,f,c
  6371  0017F4  0E00               	movlw	0
  6372  0017F6  221D               	addwfc	i2___flmul@grs+1,f,c
  6373  0017F8  221E               	addwfc	i2___flmul@grs+2,f,c
  6374  0017FA  221F               	addwfc	i2___flmul@grs+3,f,c
  6375  0017FC  5027               	movf	i2___flmul@temp+1,w,c
  6376  0017FE  2622               	addwf	i2___flmul@prod,f,c
  6377  001800  0E00               	movlw	0
  6378  001802  2223               	addwfc	i2___flmul@prod+1,f,c
  6379  001804  2224               	addwfc	i2___flmul@prod+2,f,c
  6380  001806  2225               	addwfc	i2___flmul@prod+3,f,c
  6381  001808  5013               	movf	i2___flmul@a,w,c
  6382  00180A  0211               	mulwf	i2___flmul@b+2,c
  6383  00180C  CFF3 F026          	movff	prodl,i2___flmul@temp
  6384  001810  CFF4 F027          	movff	prodh,i2___flmul@temp+1
  6385  001814  5026               	movf	i2___flmul@temp,w,c
  6386  001816  261C               	addwf	i2___flmul@grs,f,c
  6387  001818  0E00               	movlw	0
  6388  00181A  221D               	addwfc	i2___flmul@grs+1,f,c
  6389  00181C  221E               	addwfc	i2___flmul@grs+2,f,c
  6390  00181E  221F               	addwfc	i2___flmul@grs+3,f,c
  6391  001820  5027               	movf	i2___flmul@temp+1,w,c
  6392  001822  2622               	addwf	i2___flmul@prod,f,c
  6393  001824  0E00               	movlw	0
  6394  001826  2223               	addwfc	i2___flmul@prod+1,f,c
  6395  001828  2224               	addwfc	i2___flmul@prod+2,f,c
  6396  00182A  2225               	addwfc	i2___flmul@prod+3,f,c
  6397  00182C  C01E  F01F         	movff	i2___flmul@grs+2,i2___flmul@grs+3
  6398  001830  C01D  F01E         	movff	i2___flmul@grs+1,i2___flmul@grs+2
  6399  001834  C01C  F01D         	movff	i2___flmul@grs,i2___flmul@grs+1
  6400  001838  6A1C               	clrf	i2___flmul@grs,c
  6401  00183A  5013               	movf	i2___flmul@a,w,c
  6402  00183C  0210               	mulwf	i2___flmul@b+1,c
  6403  00183E  CFF3 F026          	movff	prodl,i2___flmul@temp
  6404  001842  CFF4 F027          	movff	prodh,i2___flmul@temp+1
  6405  001846  5026               	movf	i2___flmul@temp,w,c
  6406  001848  261C               	addwf	i2___flmul@grs,f,c
  6407  00184A  5027               	movf	i2___flmul@temp+1,w,c
  6408  00184C  221D               	addwfc	i2___flmul@grs+1,f,c
  6409  00184E  0E00               	movlw	0
  6410  001850  221E               	addwfc	i2___flmul@grs+2,f,c
  6411  001852  0E00               	movlw	0
  6412  001854  221F               	addwfc	i2___flmul@grs+3,f,c
  6413  001856  5014               	movf	i2___flmul@a+1,w,c
  6414  001858  020F               	mulwf	i2___flmul@b,c
  6415  00185A  CFF3 F026          	movff	prodl,i2___flmul@temp
  6416  00185E  CFF4 F027          	movff	prodh,i2___flmul@temp+1
  6417  001862  5026               	movf	i2___flmul@temp,w,c
  6418  001864  261C               	addwf	i2___flmul@grs,f,c
  6419  001866  5027               	movf	i2___flmul@temp+1,w,c
  6420  001868  221D               	addwfc	i2___flmul@grs+1,f,c
  6421  00186A  0E00               	movlw	0
  6422  00186C  221E               	addwfc	i2___flmul@grs+2,f,c
  6423  00186E  0E00               	movlw	0
  6424  001870  221F               	addwfc	i2___flmul@grs+3,f,c
  6425  001872  C01E  F01F         	movff	i2___flmul@grs+2,i2___flmul@grs+3
  6426  001876  C01D  F01E         	movff	i2___flmul@grs+1,i2___flmul@grs+2
  6427  00187A  C01C  F01D         	movff	i2___flmul@grs,i2___flmul@grs+1
  6428  00187E  6A1C               	clrf	i2___flmul@grs,c
  6429  001880  5013               	movf	i2___flmul@a,w,c
  6430  001882  020F               	mulwf	i2___flmul@b,c
  6431  001884  CFF3 F026          	movff	prodl,i2___flmul@temp
  6432  001888  CFF4 F027          	movff	prodh,i2___flmul@temp+1
  6433  00188C  5026               	movf	i2___flmul@temp,w,c
  6434  00188E  261C               	addwf	i2___flmul@grs,f,c
  6435  001890  5027               	movf	i2___flmul@temp+1,w,c
  6436  001892  221D               	addwfc	i2___flmul@grs+1,f,c
  6437  001894  0E00               	movlw	0
  6438  001896  221E               	addwfc	i2___flmul@grs+2,f,c
  6439  001898  0E00               	movlw	0
  6440  00189A  221F               	addwfc	i2___flmul@grs+3,f,c
  6441  00189C  5015               	movf	i2___flmul@a+2,w,c
  6442  00189E  0210               	mulwf	i2___flmul@b+1,c
  6443  0018A0  CFF3 F026          	movff	prodl,i2___flmul@temp
  6444  0018A4  CFF4 F027          	movff	prodh,i2___flmul@temp+1
  6445  0018A8  5026               	movf	i2___flmul@temp,w,c
  6446  0018AA  2622               	addwf	i2___flmul@prod,f,c
  6447  0018AC  5027               	movf	i2___flmul@temp+1,w,c
  6448  0018AE  2223               	addwfc	i2___flmul@prod+1,f,c
  6449  0018B0  0E00               	movlw	0
  6450  0018B2  2224               	addwfc	i2___flmul@prod+2,f,c
  6451  0018B4  0E00               	movlw	0
  6452  0018B6  2225               	addwfc	i2___flmul@prod+3,f,c
  6453  0018B8  5014               	movf	i2___flmul@a+1,w,c
  6454  0018BA  0211               	mulwf	i2___flmul@b+2,c
  6455  0018BC  CFF3 F026          	movff	prodl,i2___flmul@temp
  6456  0018C0  CFF4 F027          	movff	prodh,i2___flmul@temp+1
  6457  0018C4  5026               	movf	i2___flmul@temp,w,c
  6458  0018C6  2622               	addwf	i2___flmul@prod,f,c
  6459  0018C8  5027               	movf	i2___flmul@temp+1,w,c
  6460  0018CA  2223               	addwfc	i2___flmul@prod+1,f,c
  6461  0018CC  0E00               	movlw	0
  6462  0018CE  2224               	addwfc	i2___flmul@prod+2,f,c
  6463  0018D0  0E00               	movlw	0
  6464  0018D2  2225               	addwfc	i2___flmul@prod+3,f,c
  6465  0018D4  5015               	movf	i2___flmul@a+2,w,c
  6466  0018D6  0211               	mulwf	i2___flmul@b+2,c
  6467  0018D8  CFF3 F026          	movff	prodl,i2___flmul@temp
  6468  0018DC  CFF4 F027          	movff	prodh,i2___flmul@temp+1
  6469  0018E0  5026               	movf	i2___flmul@temp,w,c
  6470  0018E2  6E17               	movwf	??i2___flmul& (0+255),c
  6471  0018E4  5027               	movf	i2___flmul@temp+1,w,c
  6472  0018E6  6E18               	movwf	(??i2___flmul+1)& (0+255),c
  6473  0018E8  6A19               	clrf	(??i2___flmul+2)& (0+255),c
  6474  0018EA  6A1A               	clrf	(??i2___flmul+3)& (0+255),c
  6475  0018EC  C019  F01A         	movff	??i2___flmul+2,??i2___flmul+3
  6476  0018F0  C018  F019         	movff	??i2___flmul+1,??i2___flmul+2
  6477  0018F4  C017  F018         	movff	??i2___flmul,??i2___flmul+1
  6478  0018F8  6A17               	clrf	??i2___flmul,c
  6479  0018FA  5017               	movf	??i2___flmul,w,c
  6480  0018FC  2622               	addwf	i2___flmul@prod,f,c
  6481  0018FE  5018               	movf	??i2___flmul+1,w,c
  6482  001900  2223               	addwfc	i2___flmul@prod+1,f,c
  6483  001902  5019               	movf	??i2___flmul+2,w,c
  6484  001904  2224               	addwfc	i2___flmul@prod+2,f,c
  6485  001906  501A               	movf	??i2___flmul+3,w,c
  6486  001908  2225               	addwfc	i2___flmul@prod+3,f,c
  6487  00190A  C01C  F017         	movff	i2___flmul@grs,??i2___flmul
  6488  00190E  C01D  F018         	movff	i2___flmul@grs+1,??i2___flmul+1
  6489  001912  C01E  F019         	movff	i2___flmul@grs+2,??i2___flmul+2
  6490  001916  C01F  F01A         	movff	i2___flmul@grs+3,??i2___flmul+3
  6491  00191A  0E19               	movlw	25
  6492  00191C  D005               	goto	i2u348_40
  6493  00191E                     i2u348_45:
  6494  00191E  90D8               	bcf	status,0,c
  6495  001920  321A               	rrcf	??i2___flmul+3,f,c
  6496  001922  3219               	rrcf	??i2___flmul+2,f,c
  6497  001924  3218               	rrcf	??i2___flmul+1,f,c
  6498  001926  3217               	rrcf	??i2___flmul,f,c
  6499  001928                     i2u348_40:
  6500  001928  2EE8               	decfsz	wreg,f,c
  6501  00192A  D7F9               	goto	i2u348_45
  6502  00192C  5017               	movf	??i2___flmul,w,c
  6503  00192E  2622               	addwf	i2___flmul@prod,f,c
  6504  001930  5018               	movf	??i2___flmul+1,w,c
  6505  001932  2223               	addwfc	i2___flmul@prod+1,f,c
  6506  001934  5019               	movf	??i2___flmul+2,w,c
  6507  001936  2224               	addwfc	i2___flmul@prod+2,f,c
  6508  001938  501A               	movf	??i2___flmul+3,w,c
  6509  00193A  2225               	addwfc	i2___flmul@prod+3,f,c
  6510  00193C  C01E  F01F         	movff	i2___flmul@grs+2,i2___flmul@grs+3
  6511  001940  C01D  F01E         	movff	i2___flmul@grs+1,i2___flmul@grs+2
  6512  001944  C01C  F01D         	movff	i2___flmul@grs,i2___flmul@grs+1
  6513  001948  6A1C               	clrf	i2___flmul@grs,c
  6514  00194A  5020               	movf	i2___flmul@aexp,w,c
  6515  00194C  C021  F017         	movff	i2___flmul@bexp,??i2___flmul
  6516  001950  6A18               	clrf	(??i2___flmul+1)& (0+255),c
  6517  001952  2617               	addwf	??i2___flmul,f,c
  6518  001954  0E00               	movlw	0
  6519  001956  2218               	addwfc	??i2___flmul+1,f,c
  6520  001958  0E82               	movlw	130
  6521  00195A  2417               	addwf	??i2___flmul,w,c
  6522  00195C  6E26               	movwf	i2___flmul@temp,c
  6523  00195E  0EFF               	movlw	255
  6524  001960  2018               	addwfc	??i2___flmul+1,w,c
  6525  001962  6E27               	movwf	i2___flmul@temp+1,c
  6526  001964  D00F               	goto	i2l1085
  6527  001966  90D8               	bcf	status,0,c
  6528  001968  3622               	rlcf	i2___flmul@prod,f,c
  6529  00196A  3623               	rlcf	i2___flmul@prod+1,f,c
  6530  00196C  3624               	rlcf	i2___flmul@prod+2,f,c
  6531  00196E  3625               	rlcf	i2___flmul@prod+3,f,c
  6532  001970  BE1F               	btfsc	i2___flmul@grs+3,7,c
  6533  001972  8022               	bsf	i2___flmul@prod,0,c
  6534  001974  90D8               	bcf	status,0,c
  6535  001976  361C               	rlcf	i2___flmul@grs,f,c
  6536  001978  361D               	rlcf	i2___flmul@grs+1,f,c
  6537  00197A  361E               	rlcf	i2___flmul@grs+2,f,c
  6538  00197C  361F               	rlcf	i2___flmul@grs+3,f,c
  6539  00197E  0626               	decf	i2___flmul@temp,f,c
  6540  001980  A0D8               	btfss	status,0,c
  6541  001982  0627               	decf	i2___flmul@temp+1,f,c
  6542  001984                     i2l1085:
  6543  001984  AE24               	btfss	i2___flmul@prod+2,7,c
  6544  001986  D7EF               	goto	i2l1086
  6545  001988  0E00               	movlw	0
  6546  00198A  6E20               	movwf	i2___flmul@aexp,c
  6547  00198C  AE1F               	btfss	i2___flmul@grs+3,7,c
  6548  00198E  D016               	goto	i2l1092
  6549  001990  0EFF               	movlw	255
  6550  001992  141C               	andwf	i2___flmul@grs,w,c
  6551  001994  6E17               	movwf	??i2___flmul& (0+255),c
  6552  001996  0EFF               	movlw	255
  6553  001998  141D               	andwf	i2___flmul@grs+1,w,c
  6554  00199A  6E18               	movwf	(??i2___flmul+1)& (0+255),c
  6555  00199C  0EFF               	movlw	255
  6556  00199E  141E               	andwf	i2___flmul@grs+2,w,c
  6557  0019A0  6E19               	movwf	(??i2___flmul+2)& (0+255),c
  6558  0019A2  0E7F               	movlw	127
  6559  0019A4  141F               	andwf	i2___flmul@grs+3,w,c
  6560  0019A6  6E1A               	movwf	(??i2___flmul+3)& (0+255),c
  6561  0019A8  5017               	movf	??i2___flmul,w,c
  6562  0019AA  1018               	iorwf	??i2___flmul+1,w,c
  6563  0019AC  1019               	iorwf	??i2___flmul+2,w,c
  6564  0019AE  101A               	iorwf	??i2___flmul+3,w,c
  6565  0019B0  A4D8               	btfss	status,2,c
  6566  0019B2  D002               	goto	i2u353_40
  6567  0019B4  A022               	btfss	i2___flmul@prod,0,c
  6568  0019B6  D002               	goto	i2l1092
  6569  0019B8                     i2u353_40:
  6570  0019B8  0E01               	movlw	1
  6571  0019BA  6E20               	movwf	i2___flmul@aexp,c
  6572  0019BC                     i2l1092:
  6573  0019BC  5020               	movf	i2___flmul@aexp,w,c
  6574  0019BE  B4D8               	btfsc	status,2,c
  6575  0019C0  D01F               	goto	i2l1094
  6576  0019C2  0E01               	movlw	1
  6577  0019C4  2622               	addwf	i2___flmul@prod,f,c
  6578  0019C6  0E00               	movlw	0
  6579  0019C8  2223               	addwfc	i2___flmul@prod+1,f,c
  6580  0019CA  2224               	addwfc	i2___flmul@prod+2,f,c
  6581  0019CC  2225               	addwfc	i2___flmul@prod+3,f,c
  6582  0019CE  A025               	btfss	i2___flmul@prod+3,0,c
  6583  0019D0  D017               	goto	i2l1094
  6584  0019D2  C022  F017         	movff	i2___flmul@prod,??i2___flmul
  6585  0019D6  C023  F018         	movff	i2___flmul@prod+1,??i2___flmul+1
  6586  0019DA  C024  F019         	movff	i2___flmul@prod+2,??i2___flmul+2
  6587  0019DE  C025  F01A         	movff	i2___flmul@prod+3,??i2___flmul+3
  6588  0019E2  341A               	rlcf	??i2___flmul+3,w,c
  6589  0019E4  321A               	rrcf	??i2___flmul+3,f,c
  6590  0019E6  3219               	rrcf	??i2___flmul+2,f,c
  6591  0019E8  3218               	rrcf	??i2___flmul+1,f,c
  6592  0019EA  3217               	rrcf	??i2___flmul,f,c
  6593  0019EC  C017  F022         	movff	??i2___flmul,i2___flmul@prod
  6594  0019F0  C018  F023         	movff	??i2___flmul+1,i2___flmul@prod+1
  6595  0019F4  C019  F024         	movff	??i2___flmul+2,i2___flmul@prod+2
  6596  0019F8  C01A  F025         	movff	??i2___flmul+3,i2___flmul@prod+3
  6597  0019FC  4A26               	infsnz	i2___flmul@temp,f,c
  6598  0019FE  2A27               	incf	i2___flmul@temp+1,f,c
  6599  001A00                     i2l1094:
  6600  001A00  BE27               	btfsc	i2___flmul@temp+1,7,c
  6601  001A02  D00D               	goto	i2l1095
  6602  001A04  5027               	movf	i2___flmul@temp+1,w,c
  6603  001A06  E103               	bnz	i2u356_40
  6604  001A08  2826               	incf	i2___flmul@temp,w,c
  6605  001A0A  A0D8               	btfss	status,0,c
  6606  001A0C  D008               	goto	i2l1095
  6607  001A0E                     i2u356_40:
  6608  001A0E  0E00               	movlw	0
  6609  001A10  6E22               	movwf	i2___flmul@prod,c
  6610  001A12  0E00               	movlw	0
  6611  001A14  6E23               	movwf	i2___flmul@prod+1,c
  6612  001A16  0E80               	movlw	128
  6613  001A18  6E24               	movwf	i2___flmul@prod+2,c
  6614  001A1A  0E7F               	movlw	127
  6615  001A1C  D020               	goto	L7
  6616  001A1E                     i2l1095:
  6617  001A1E  BE27               	btfsc	i2___flmul@temp+1,7,c
  6618  001A20  D005               	goto	i2u357_40
  6619  001A22  5027               	movf	i2___flmul@temp+1,w,c
  6620  001A24  E10E               	bnz	i2l1097
  6621  001A26  0426               	decf	i2___flmul@temp,w,c
  6622  001A28  B0D8               	btfsc	status,0,c
  6623  001A2A  D00B               	goto	i2l1097
  6624  001A2C                     i2u357_40:
  6625  001A2C  0E00               	movlw	0
  6626  001A2E  6E22               	movwf	i2___flmul@prod,c
  6627  001A30  0E00               	movlw	0
  6628  001A32  6E23               	movwf	i2___flmul@prod+1,c
  6629  001A34  0E00               	movlw	0
  6630  001A36  6E24               	movwf	i2___flmul@prod+2,c
  6631  001A38  0E00               	movlw	0
  6632  001A3A  6E25               	movwf	i2___flmul@prod+3,c
  6633  001A3C  0E00               	movlw	0
  6634  001A3E  6E1B               	movwf	i2___flmul@sign,c
  6635  001A40  D00F               	goto	i2l1098
  6636  001A42                     i2l1097:
  6637  001A42  C026  F021         	movff	i2___flmul@temp,i2___flmul@bexp
  6638  001A46  0EFF               	movlw	255
  6639  001A48  1622               	andwf	i2___flmul@prod,f,c
  6640  001A4A  0EFF               	movlw	255
  6641  001A4C  1623               	andwf	i2___flmul@prod+1,f,c
  6642  001A4E  0E7F               	movlw	127
  6643  001A50  1624               	andwf	i2___flmul@prod+2,f,c
  6644  001A52  0E00               	movlw	0
  6645  001A54  1625               	andwf	i2___flmul@prod+3,f,c
  6646  001A56  B021               	btfsc	i2___flmul@bexp,0,c
  6647  001A58  8E24               	bsf	i2___flmul@prod+2,7,c
  6648  001A5A  90D8               	bcf	status,0,c
  6649  001A5C  3021               	rrcf	i2___flmul@bexp,w,c
  6650  001A5E                     L7:
  6651  001A5E  6E25               	movwf	i2___flmul@prod+3,c
  6652  001A60                     i2l1098:
  6653  001A60  501B               	movf	i2___flmul@sign,w,c
  6654  001A62  1225               	iorwf	i2___flmul@prod+3,f,c
  6655  001A64  C022  F00F         	movff	i2___flmul@prod,?i2___flmul
  6656  001A68  C023  F010         	movff	i2___flmul@prod+1,?i2___flmul+1
  6657  001A6C  C024  F011         	movff	i2___flmul@prod+2,?i2___flmul+2
  6658  001A70  C025  F012         	movff	i2___flmul@prod+3,?i2___flmul+3
  6659  001A74  0012               	return	
  6660  001A76                     __end_ofi2___flmul:
  6661                           	opt stack 0
  6662                           pclatu	equ	0xFFB
  6663                           pclath	equ	0xFFA
  6664                           tblptru	equ	0xFF8
  6665                           tblptrh	equ	0xFF7
  6666                           tblptrl	equ	0xFF6
  6667                           tablat	equ	0xFF5
  6668                           prodh	equ	0xFF4
  6669                           prodl	equ	0xFF3
  6670                           intcon	equ	0xFF2
  6671                           postinc0	equ	0xFEE
  6672                           fsr0h	equ	0xFEA
  6673                           fsr0l	equ	0xFE9
  6674                           wreg	equ	0xFE8
  6675                           postdec1	equ	0xFE5
  6676                           fsr1h	equ	0xFE2
  6677                           fsr1l	equ	0xFE1
  6678                           postinc2	equ	0xFDE
  6679                           postdec2	equ	0xFDD
  6680                           fsr2h	equ	0xFDA
  6681                           fsr2l	equ	0xFD9
  6682                           status	equ	0xFD8
  6683                           
  6684 ;; *************** function i2___fldiv *****************
  6685 ;; Defined at:
  6686 ;;		line 11 in file "C:\Program Files (x86)\Microchip\xc8\v1.45\sources\common\sprcdiv.c"
  6687 ;; Parameters:    Size  Location     Type
  6688 ;;  b               4   39[COMRAM] unsigned char 
  6689 ;;  a               4   43[COMRAM] unsigned char 
  6690 ;; Auto vars:     Size  Location     Type
  6691 ;;  __fldiv         4   58[COMRAM] unsigned long 
  6692 ;;  __fldiv         4   52[COMRAM] unsigned long 
  6693 ;;  __fldiv         2   56[COMRAM] int 
  6694 ;;  __fldiv         1   63[COMRAM] unsigned char 
  6695 ;;  __fldiv         1   62[COMRAM] unsigned char 
  6696 ;;  __fldiv         1   51[COMRAM] unsigned char 
  6697 ;; Return value:  Size  Location     Type
  6698 ;;                  4   39[COMRAM] unsigned char 
  6699 ;; Registers used:
  6700 ;;		wreg, status,2, status,0
  6701 ;; Tracked objects:
  6702 ;;		On entry : 0/0
  6703 ;;		On exit  : 0/0
  6704 ;;		Unchanged: 0/0
  6705 ;; Data sizes:     COMRAM   BANK0   BANK1   BANK2   BANK3   BANK4   BANK5   BANK6   BANK7   BANK8   BANK9  BANK10  BANK1
      +1  BANK12  BANK13  BANK14  BANK15
  6706 ;;      Params:         8       0       0       0       0       0       0       0       0       0       0       0       
      +0       0       0       0       0
  6707 ;;      Locals:        13       0       0       0       0       0       0       0       0       0       0       0       
      +0       0       0       0       0
  6708 ;;      Temps:          4       0       0       0       0       0       0       0       0       0       0       0       
      +0       0       0       0       0
  6709 ;;      Totals:        25       0       0       0       0       0       0       0       0       0       0       0       
      +0       0       0       0       0
  6710 ;;Total ram usage:       25 bytes
  6711 ;; Hardware stack levels used:    1
  6712 ;; This function calls:
  6713 ;;		Nothing
  6714 ;; This function is called by:
  6715 ;;		_isr
  6716 ;; This function uses a non-reentrant model
  6717 ;;
  6718                           
  6719                           	psect	text22
  6720  00206A                     __ptext22:
  6721                           	opt stack 0
  6722  00206A                     i2___fldiv:
  6723                           	opt stack 27
  6724                           
  6725                           ;incstack = 0
  6726  00206A  502B               	movf	i2___fldiv@b+3,w,c
  6727  00206C  0B80               	andlw	128
  6728  00206E  6E34               	movwf	i2___fldiv@sign,c
  6729  002070  502B               	movf	i2___fldiv@b+3,w,c
  6730  002072  242B               	addwf	i2___fldiv@b+3,w,c
  6731  002074  6E3F               	movwf	i2___fldiv@bexp,c
  6732  002076  BE2A               	btfsc	i2___fldiv@b+2,7,c
  6733  002078  803F               	bsf	i2___fldiv@bexp,0,c
  6734  00207A  503F               	movf	i2___fldiv@bexp,w,c
  6735  00207C  B4D8               	btfsc	status,2,c
  6736  00207E  D00D               	goto	i2l1040
  6737  002080  283F               	incf	i2___fldiv@bexp,w,c
  6738  002082  A4D8               	btfss	status,2,c
  6739  002084  D008               	goto	i2l1041
  6740  002086  0E00               	movlw	0
  6741  002088  6E28               	movwf	i2___fldiv@b,c
  6742  00208A  0E00               	movlw	0
  6743  00208C  6E29               	movwf	i2___fldiv@b+1,c
  6744  00208E  0E00               	movlw	0
  6745  002090  6E2A               	movwf	i2___fldiv@b+2,c
  6746  002092  0E00               	movlw	0
  6747  002094  6E2B               	movwf	i2___fldiv@b+3,c
  6748  002096                     i2l1041:
  6749  002096  8E2A               	bsf	i2___fldiv@b+2,7,c
  6750  002098  D006               	goto	L8
  6751  00209A                     i2l1040:
  6752  00209A  0E00               	movlw	0
  6753  00209C  6E28               	movwf	i2___fldiv@b,c
  6754  00209E  0E00               	movlw	0
  6755  0020A0  6E29               	movwf	i2___fldiv@b+1,c
  6756  0020A2  0E00               	movlw	0
  6757  0020A4  6E2A               	movwf	i2___fldiv@b+2,c
  6758  0020A6                     L8:
  6759  0020A6  0E00               	movlw	0
  6760  0020A8  6E2B               	movwf	i2___fldiv@b+3,c
  6761  0020AA  502F               	movf	i2___fldiv@a+3,w,c
  6762  0020AC  0B80               	andlw	128
  6763  0020AE  1A34               	xorwf	i2___fldiv@sign,f,c
  6764  0020B0  502F               	movf	i2___fldiv@a+3,w,c
  6765  0020B2  242F               	addwf	i2___fldiv@a+3,w,c
  6766  0020B4  6E40               	movwf	i2___fldiv@aexp,c
  6767  0020B6  BE2E               	btfsc	i2___fldiv@a+2,7,c
  6768  0020B8  8040               	bsf	i2___fldiv@aexp,0,c
  6769  0020BA  5040               	movf	i2___fldiv@aexp,w,c
  6770  0020BC  B4D8               	btfsc	status,2,c
  6771  0020BE  D00D               	goto	i2l1044
  6772  0020C0  2840               	incf	i2___fldiv@aexp,w,c
  6773  0020C2  A4D8               	btfss	status,2,c
  6774  0020C4  D008               	goto	i2l1045
  6775  0020C6  0E00               	movlw	0
  6776  0020C8  6E2C               	movwf	i2___fldiv@a,c
  6777  0020CA  0E00               	movlw	0
  6778  0020CC  6E2D               	movwf	i2___fldiv@a+1,c
  6779  0020CE  0E00               	movlw	0
  6780  0020D0  6E2E               	movwf	i2___fldiv@a+2,c
  6781  0020D2  0E00               	movlw	0
  6782  0020D4  6E2F               	movwf	i2___fldiv@a+3,c
  6783  0020D6                     i2l1045:
  6784  0020D6  8E2E               	bsf	i2___fldiv@a+2,7,c
  6785  0020D8  D006               	goto	L9
  6786  0020DA                     i2l1044:
  6787  0020DA  0E00               	movlw	0
  6788  0020DC  6E2C               	movwf	i2___fldiv@a,c
  6789  0020DE  0E00               	movlw	0
  6790  0020E0  6E2D               	movwf	i2___fldiv@a+1,c
  6791  0020E2  0E00               	movlw	0
  6792  0020E4  6E2E               	movwf	i2___fldiv@a+2,c
  6793  0020E6                     L9:
  6794  0020E6  0E00               	movlw	0
  6795  0020E8  6E2F               	movwf	i2___fldiv@a+3,c
  6796  0020EA  502C               	movf	i2___fldiv@a,w,c
  6797  0020EC  102D               	iorwf	i2___fldiv@a+1,w,c
  6798  0020EE  102E               	iorwf	i2___fldiv@a+2,w,c
  6799  0020F0  102F               	iorwf	i2___fldiv@a+3,w,c
  6800  0020F2  A4D8               	btfss	status,2,c
  6801  0020F4  D015               	goto	i2l1047
  6802  0020F6  0E00               	movlw	0
  6803  0020F8  6E28               	movwf	i2___fldiv@b,c
  6804  0020FA  0E00               	movlw	0
  6805  0020FC  6E29               	movwf	i2___fldiv@b+1,c
  6806  0020FE  0E00               	movlw	0
  6807  002100  6E2A               	movwf	i2___fldiv@b+2,c
  6808  002102  0E00               	movlw	0
  6809  002104  6E2B               	movwf	i2___fldiv@b+3,c
  6810  002106  0E80               	movlw	128
  6811  002108  122A               	iorwf	i2___fldiv@b+2,f,c
  6812  00210A  0E7F               	movlw	127
  6813  00210C  122B               	iorwf	i2___fldiv@b+3,f,c
  6814  00210E  C028  F028         	movff	i2___fldiv@b,?i2___fldiv
  6815  002112  C029  F029         	movff	i2___fldiv@b+1,?i2___fldiv+1
  6816  002116  C02A  F02A         	movff	i2___fldiv@b+2,?i2___fldiv+2
  6817  00211A  C02B  F02B         	movff	i2___fldiv@b+3,?i2___fldiv+3
  6818  00211E  0012               	return	
  6819  002120                     i2l1047:
  6820  002120  503F               	movf	i2___fldiv@bexp,w,c
  6821  002122  A4D8               	btfss	status,2,c
  6822  002124  D011               	goto	i2l1049
  6823  002126  0E00               	movlw	0
  6824  002128  6E28               	movwf	i2___fldiv@b,c
  6825  00212A  0E00               	movlw	0
  6826  00212C  6E29               	movwf	i2___fldiv@b+1,c
  6827  00212E  0E00               	movlw	0
  6828  002130  6E2A               	movwf	i2___fldiv@b+2,c
  6829  002132  0E00               	movlw	0
  6830  002134  6E2B               	movwf	i2___fldiv@b+3,c
  6831  002136  C028  F028         	movff	i2___fldiv@b,?i2___fldiv
  6832  00213A  C029  F029         	movff	i2___fldiv@b+1,?i2___fldiv+1
  6833  00213E  C02A  F02A         	movff	i2___fldiv@b+2,?i2___fldiv+2
  6834  002142  C02B  F02B         	movff	i2___fldiv@b+3,?i2___fldiv+3
  6835  002146  0012               	return	
  6836  002148                     i2l1049:
  6837  002148  5040               	movf	i2___fldiv@aexp,w,c
  6838  00214A  6E30               	movwf	??i2___fldiv& (0+255),c
  6839  00214C  6A31               	clrf	(??i2___fldiv+1)& (0+255),c
  6840  00214E  1E30               	comf	??i2___fldiv,f,c
  6841  002150  1E31               	comf	??i2___fldiv+1,f,c
  6842  002152  4A30               	infsnz	??i2___fldiv,f,c
  6843  002154  2A31               	incf	??i2___fldiv+1,f,c
  6844  002156  503F               	movf	i2___fldiv@bexp,w,c
  6845  002158  6E32               	movwf	(??i2___fldiv+2)& (0+255),c
  6846  00215A  6A33               	clrf	(??i2___fldiv+3)& (0+255),c
  6847  00215C  5030               	movf	??i2___fldiv,w,c
  6848  00215E  2632               	addwf	??i2___fldiv+2,f,c
  6849  002160  5031               	movf	??i2___fldiv+1,w,c
  6850  002162  2233               	addwfc	??i2___fldiv+3,f,c
  6851  002164  0E7F               	movlw	127
  6852  002166  2432               	addwf	??i2___fldiv+2,w,c
  6853  002168  6E39               	movwf	i2___fldiv@new_exp,c
  6854  00216A  0E00               	movlw	0
  6855  00216C  2033               	addwfc	??i2___fldiv+3,w,c
  6856  00216E  6E3A               	movwf	i2___fldiv@new_exp+1,c
  6857  002170  C028  F035         	movff	i2___fldiv@b,i2___fldiv@rem
  6858  002174  C029  F036         	movff	i2___fldiv@b+1,i2___fldiv@rem+1
  6859  002178  C02A  F037         	movff	i2___fldiv@b+2,i2___fldiv@rem+2
  6860  00217C  C02B  F038         	movff	i2___fldiv@b+3,i2___fldiv@rem+3
  6861  002180  0E00               	movlw	0
  6862  002182  6E28               	movwf	i2___fldiv@b,c
  6863  002184  0E00               	movlw	0
  6864  002186  6E29               	movwf	i2___fldiv@b+1,c
  6865  002188  0E00               	movlw	0
  6866  00218A  6E2A               	movwf	i2___fldiv@b+2,c
  6867  00218C  0E00               	movlw	0
  6868  00218E  6E2B               	movwf	i2___fldiv@b+3,c
  6869  002190  0E00               	movlw	0
  6870  002192  6E3B               	movwf	i2___fldiv@grs,c
  6871  002194  0E00               	movlw	0
  6872  002196  6E3C               	movwf	i2___fldiv@grs+1,c
  6873  002198  0E00               	movlw	0
  6874  00219A  6E3D               	movwf	i2___fldiv@grs+2,c
  6875  00219C  0E00               	movlw	0
  6876  00219E  6E3E               	movwf	i2___fldiv@grs+3,c
  6877  0021A0  0E00               	movlw	0
  6878  0021A2  6E40               	movwf	i2___fldiv@aexp,c
  6879  0021A4  D028               	goto	i2l1050
  6880  0021A6  5040               	movf	i2___fldiv@aexp,w,c
  6881  0021A8  B4D8               	btfsc	status,2,c
  6882  0021AA  D011               	goto	i2l1052
  6883  0021AC  90D8               	bcf	status,0,c
  6884  0021AE  3635               	rlcf	i2___fldiv@rem,f,c
  6885  0021B0  3636               	rlcf	i2___fldiv@rem+1,f,c
  6886  0021B2  3637               	rlcf	i2___fldiv@rem+2,f,c
  6887  0021B4  3638               	rlcf	i2___fldiv@rem+3,f,c
  6888  0021B6  90D8               	bcf	status,0,c
  6889  0021B8  3628               	rlcf	i2___fldiv@b,f,c
  6890  0021BA  3629               	rlcf	i2___fldiv@b+1,f,c
  6891  0021BC  362A               	rlcf	i2___fldiv@b+2,f,c
  6892  0021BE  362B               	rlcf	i2___fldiv@b+3,f,c
  6893  0021C0  BE3E               	btfsc	i2___fldiv@grs+3,7,c
  6894  0021C2  8028               	bsf	i2___fldiv@b,0,c
  6895  0021C4  90D8               	bcf	status,0,c
  6896  0021C6  363B               	rlcf	i2___fldiv@grs,f,c
  6897  0021C8  363C               	rlcf	i2___fldiv@grs+1,f,c
  6898  0021CA  363D               	rlcf	i2___fldiv@grs+2,f,c
  6899  0021CC  363E               	rlcf	i2___fldiv@grs+3,f,c
  6900  0021CE                     i2l1052:
  6901  0021CE  502C               	movf	i2___fldiv@a,w,c
  6902  0021D0  5C35               	subwf	i2___fldiv@rem,w,c
  6903  0021D2  502D               	movf	i2___fldiv@a+1,w,c
  6904  0021D4  5836               	subwfb	i2___fldiv@rem+1,w,c
  6905  0021D6  502E               	movf	i2___fldiv@a+2,w,c
  6906  0021D8  5837               	subwfb	i2___fldiv@rem+2,w,c
  6907  0021DA  502F               	movf	i2___fldiv@a+3,w,c
  6908  0021DC  5838               	subwfb	i2___fldiv@rem+3,w,c
  6909  0021DE  A0D8               	btfss	status,0,c
  6910  0021E0  D009               	goto	i2l1054
  6911  0021E2  8C3E               	bsf	i2___fldiv@grs+3,6,c
  6912  0021E4  502C               	movf	i2___fldiv@a,w,c
  6913  0021E6  5E35               	subwf	i2___fldiv@rem,f,c
  6914  0021E8  502D               	movf	i2___fldiv@a+1,w,c
  6915  0021EA  5A36               	subwfb	i2___fldiv@rem+1,f,c
  6916  0021EC  502E               	movf	i2___fldiv@a+2,w,c
  6917  0021EE  5A37               	subwfb	i2___fldiv@rem+2,f,c
  6918  0021F0  502F               	movf	i2___fldiv@a+3,w,c
  6919  0021F2  5A38               	subwfb	i2___fldiv@rem+3,f,c
  6920  0021F4                     i2l1054:
  6921  0021F4  2A40               	incf	i2___fldiv@aexp,f,c
  6922  0021F6                     i2l1050:
  6923  0021F6  0E19               	movlw	25
  6924  0021F8  6440               	cpfsgt	i2___fldiv@aexp,c
  6925  0021FA  D7D5               	goto	i2l1051
  6926  0021FC  5035               	movf	i2___fldiv@rem,w,c
  6927  0021FE  1036               	iorwf	i2___fldiv@rem+1,w,c
  6928  002200  1037               	iorwf	i2___fldiv@rem+2,w,c
  6929  002202  1038               	iorwf	i2___fldiv@rem+3,w,c
  6930  002204  B4D8               	btfsc	status,2,c
  6931  002206  D011               	goto	i2l1057
  6932  002208  803B               	bsf	i2___fldiv@grs,0,c
  6933  00220A  D00F               	goto	i2l1057
  6934  00220C  90D8               	bcf	status,0,c
  6935  00220E  3628               	rlcf	i2___fldiv@b,f,c
  6936  002210  3629               	rlcf	i2___fldiv@b+1,f,c
  6937  002212  362A               	rlcf	i2___fldiv@b+2,f,c
  6938  002214  362B               	rlcf	i2___fldiv@b+3,f,c
  6939  002216  BE3E               	btfsc	i2___fldiv@grs+3,7,c
  6940  002218  8028               	bsf	i2___fldiv@b,0,c
  6941  00221A  90D8               	bcf	status,0,c
  6942  00221C  363B               	rlcf	i2___fldiv@grs,f,c
  6943  00221E  363C               	rlcf	i2___fldiv@grs+1,f,c
  6944  002220  363D               	rlcf	i2___fldiv@grs+2,f,c
  6945  002222  363E               	rlcf	i2___fldiv@grs+3,f,c
  6946  002224  0639               	decf	i2___fldiv@new_exp,f,c
  6947  002226  A0D8               	btfss	status,0,c
  6948  002228  063A               	decf	i2___fldiv@new_exp+1,f,c
  6949  00222A                     i2l1057:
  6950  00222A  AE2A               	btfss	i2___fldiv@b+2,7,c
  6951  00222C  D7EF               	goto	i2l1058
  6952  00222E  0E00               	movlw	0
  6953  002230  6E40               	movwf	i2___fldiv@aexp,c
  6954  002232  AE3E               	btfss	i2___fldiv@grs+3,7,c
  6955  002234  D016               	goto	i2l1064
  6956  002236  0EFF               	movlw	255
  6957  002238  143B               	andwf	i2___fldiv@grs,w,c
  6958  00223A  6E30               	movwf	??i2___fldiv& (0+255),c
  6959  00223C  0EFF               	movlw	255
  6960  00223E  143C               	andwf	i2___fldiv@grs+1,w,c
  6961  002240  6E31               	movwf	(??i2___fldiv+1)& (0+255),c
  6962  002242  0EFF               	movlw	255
  6963  002244  143D               	andwf	i2___fldiv@grs+2,w,c
  6964  002246  6E32               	movwf	(??i2___fldiv+2)& (0+255),c
  6965  002248  0E7F               	movlw	127
  6966  00224A  143E               	andwf	i2___fldiv@grs+3,w,c
  6967  00224C  6E33               	movwf	(??i2___fldiv+3)& (0+255),c
  6968  00224E  5030               	movf	??i2___fldiv,w,c
  6969  002250  1031               	iorwf	??i2___fldiv+1,w,c
  6970  002252  1032               	iorwf	??i2___fldiv+2,w,c
  6971  002254  1033               	iorwf	??i2___fldiv+3,w,c
  6972  002256  A4D8               	btfss	status,2,c
  6973  002258  D002               	goto	i2u334_40
  6974  00225A  A028               	btfss	i2___fldiv@b,0,c
  6975  00225C  D002               	goto	i2l1064
  6976  00225E                     i2u334_40:
  6977  00225E  0E01               	movlw	1
  6978  002260  6E40               	movwf	i2___fldiv@aexp,c
  6979  002262                     i2l1064:
  6980  002262  5040               	movf	i2___fldiv@aexp,w,c
  6981  002264  B4D8               	btfsc	status,2,c
  6982  002266  D01F               	goto	i2l1066
  6983  002268  0E01               	movlw	1
  6984  00226A  2628               	addwf	i2___fldiv@b,f,c
  6985  00226C  0E00               	movlw	0
  6986  00226E  2229               	addwfc	i2___fldiv@b+1,f,c
  6987  002270  222A               	addwfc	i2___fldiv@b+2,f,c
  6988  002272  222B               	addwfc	i2___fldiv@b+3,f,c
  6989  002274  A02B               	btfss	i2___fldiv@b+3,0,c
  6990  002276  D017               	goto	i2l1066
  6991  002278  C028  F030         	movff	i2___fldiv@b,??i2___fldiv
  6992  00227C  C029  F031         	movff	i2___fldiv@b+1,??i2___fldiv+1
  6993  002280  C02A  F032         	movff	i2___fldiv@b+2,??i2___fldiv+2
  6994  002284  C02B  F033         	movff	i2___fldiv@b+3,??i2___fldiv+3
  6995  002288  3433               	rlcf	??i2___fldiv+3,w,c
  6996  00228A  3233               	rrcf	??i2___fldiv+3,f,c
  6997  00228C  3232               	rrcf	??i2___fldiv+2,f,c
  6998  00228E  3231               	rrcf	??i2___fldiv+1,f,c
  6999  002290  3230               	rrcf	??i2___fldiv,f,c
  7000  002292  C030  F028         	movff	??i2___fldiv,i2___fldiv@b
  7001  002296  C031  F029         	movff	??i2___fldiv+1,i2___fldiv@b+1
  7002  00229A  C032  F02A         	movff	??i2___fldiv+2,i2___fldiv@b+2
  7003  00229E  C033  F02B         	movff	??i2___fldiv+3,i2___fldiv@b+3
  7004  0022A2  4A39               	infsnz	i2___fldiv@new_exp,f,c
  7005  0022A4  2A3A               	incf	i2___fldiv@new_exp+1,f,c
  7006  0022A6                     i2l1066:
  7007  0022A6  BE3A               	btfsc	i2___fldiv@new_exp+1,7,c
  7008  0022A8  D010               	goto	i2l1067
  7009  0022AA  503A               	movf	i2___fldiv@new_exp+1,w,c
  7010  0022AC  E103               	bnz	i2u337_40
  7011  0022AE  2839               	incf	i2___fldiv@new_exp,w,c
  7012  0022B0  A0D8               	btfss	status,0,c
  7013  0022B2  D00B               	goto	i2l1067
  7014  0022B4                     i2u337_40:
  7015  0022B4  0E00               	movlw	0
  7016  0022B6  6E3A               	movwf	i2___fldiv@new_exp+1,c
  7017  0022B8  6839               	setf	i2___fldiv@new_exp,c
  7018  0022BA  0E00               	movlw	0
  7019  0022BC  6E28               	movwf	i2___fldiv@b,c
  7020  0022BE  0E00               	movlw	0
  7021  0022C0  6E29               	movwf	i2___fldiv@b+1,c
  7022  0022C2  0E00               	movlw	0
  7023  0022C4  6E2A               	movwf	i2___fldiv@b+2,c
  7024  0022C6  0E00               	movlw	0
  7025  0022C8  6E2B               	movwf	i2___fldiv@b+3,c
  7026  0022CA                     i2l1067:
  7027  0022CA  BE3A               	btfsc	i2___fldiv@new_exp+1,7,c
  7028  0022CC  D005               	goto	i2u338_40
  7029  0022CE  503A               	movf	i2___fldiv@new_exp+1,w,c
  7030  0022D0  E111               	bnz	i2l3426
  7031  0022D2  0439               	decf	i2___fldiv@new_exp,w,c
  7032  0022D4  B0D8               	btfsc	status,0,c
  7033  0022D6  D00E               	goto	i2l1068
  7034  0022D8                     i2u338_40:
  7035  0022D8  0E00               	movlw	0
  7036  0022DA  6E3A               	movwf	i2___fldiv@new_exp+1,c
  7037  0022DC  0E00               	movlw	0
  7038  0022DE  6E39               	movwf	i2___fldiv@new_exp,c
  7039  0022E0  0E00               	movlw	0
  7040  0022E2  6E28               	movwf	i2___fldiv@b,c
  7041  0022E4  0E00               	movlw	0
  7042  0022E6  6E29               	movwf	i2___fldiv@b+1,c
  7043  0022E8  0E00               	movlw	0
  7044  0022EA  6E2A               	movwf	i2___fldiv@b+2,c
  7045  0022EC  0E00               	movlw	0
  7046  0022EE  6E2B               	movwf	i2___fldiv@b+3,c
  7047  0022F0  0E00               	movlw	0
  7048  0022F2  6E34               	movwf	i2___fldiv@sign,c
  7049  0022F4                     i2l1068:
  7050  0022F4                     i2l3426:
  7051  0022F4  C039  F03F         	movff	i2___fldiv@new_exp,i2___fldiv@bexp
  7052  0022F8  A03F               	btfss	i2___fldiv@bexp,0,c
  7053  0022FA  D002               	goto	i2l1069
  7054  0022FC  8E2A               	bsf	i2___fldiv@b+2,7,c
  7055  0022FE  D001               	goto	i2l1070
  7056  002300                     i2l1069:
  7057  002300  9E2A               	bcf	i2___fldiv@b+2,7,c
  7058  002302                     i2l1070:
  7059  002302  90D8               	bcf	status,0,c
  7060  002304  303F               	rrcf	i2___fldiv@bexp,w,c
  7061  002306  6E2B               	movwf	i2___fldiv@b+3,c
  7062  002308  5034               	movf	i2___fldiv@sign,w,c
  7063  00230A  122B               	iorwf	i2___fldiv@b+3,f,c
  7064  00230C  C028  F028         	movff	i2___fldiv@b,?i2___fldiv
  7065  002310  C029  F029         	movff	i2___fldiv@b+1,?i2___fldiv+1
  7066  002314  C02A  F02A         	movff	i2___fldiv@b+2,?i2___fldiv+2
  7067  002318  C02B  F02B         	movff	i2___fldiv@b+3,?i2___fldiv+3
  7068  00231C  0012               	return	
  7069  00231E                     __end_ofi2___fldiv:
  7070                           	opt stack 0
  7071                           pclatu	equ	0xFFB
  7072                           pclath	equ	0xFFA
  7073                           tblptru	equ	0xFF8
  7074                           tblptrh	equ	0xFF7
  7075                           tblptrl	equ	0xFF6
  7076                           tablat	equ	0xFF5
  7077                           prodh	equ	0xFF4
  7078                           prodl	equ	0xFF3
  7079                           intcon	equ	0xFF2
  7080                           postinc0	equ	0xFEE
  7081                           fsr0h	equ	0xFEA
  7082                           fsr0l	equ	0xFE9
  7083                           wreg	equ	0xFE8
  7084                           postdec1	equ	0xFE5
  7085                           fsr1h	equ	0xFE2
  7086                           fsr1l	equ	0xFE1
  7087                           postinc2	equ	0xFDE
  7088                           postdec2	equ	0xFDD
  7089                           fsr2h	equ	0xFDA
  7090                           fsr2l	equ	0xFD9
  7091                           status	equ	0xFD8
  7092                           
  7093 ;; *************** function _Set_Timer0 *****************
  7094 ;; Defined at:
  7095 ;;		line 288 in file "TIMERS_XC8.c"
  7096 ;; Parameters:    Size  Location     Type
  7097 ;;  data_timer      2    0[COMRAM] unsigned int 
  7098 ;; Auto vars:     Size  Location     Type
  7099 ;;		None
  7100 ;; Return value:  Size  Location     Type
  7101 ;;                  1    wreg      void 
  7102 ;; Registers used:
  7103 ;;		wreg, status,2
  7104 ;; Tracked objects:
  7105 ;;		On entry : 0/0
  7106 ;;		On exit  : 0/0
  7107 ;;		Unchanged: 0/0
  7108 ;; Data sizes:     COMRAM   BANK0   BANK1   BANK2   BANK3   BANK4   BANK5   BANK6   BANK7   BANK8   BANK9  BANK10  BANK1
      +1  BANK12  BANK13  BANK14  BANK15
  7109 ;;      Params:         2       0       0       0       0       0       0       0       0       0       0       0       
      +0       0       0       0       0
  7110 ;;      Locals:         0       0       0       0       0       0       0       0       0       0       0       0       
      +0       0       0       0       0
  7111 ;;      Temps:          0       0       0       0       0       0       0       0       0       0       0       0       
      +0       0       0       0       0
  7112 ;;      Totals:         2       0       0       0       0       0       0       0       0       0       0       0       
      +0       0       0       0       0
  7113 ;;Total ram usage:        2 bytes
  7114 ;; Hardware stack levels used:    1
  7115 ;; This function calls:
  7116 ;;		Nothing
  7117 ;; This function is called by:
  7118 ;;		_isr
  7119 ;; This function uses a non-reentrant model
  7120 ;;
  7121                           
  7122                           	psect	text23
  7123  002E52                     __ptext23:
  7124                           	opt stack 0
  7125  002E52                     _Set_Timer0:
  7126                           	opt stack 27
  7127                           
  7128                           ;TIMERS_XC8.c: 290: TMR0H = data_timer >> 8;
  7129                           
  7130                           ;incstack = 0
  7131  002E52  5002               	movf	Set_Timer0@data_timer+1,w,c
  7132  002E54  6ED7               	movwf	4055,c	;volatile
  7133                           
  7134                           ;TIMERS_XC8.c: 291: TMR0L = data_timer & 0x00FF;
  7135  002E56  C001  FFD6         	movff	Set_Timer0@data_timer,4054	;volatile
  7136  002E5A  0012               	return		;funcret
  7137  002E5C                     __end_of_Set_Timer0:
  7138                           	opt stack 0
  7139                           pclatu	equ	0xFFB
  7140                           pclath	equ	0xFFA
  7141                           tblptru	equ	0xFF8
  7142                           tblptrh	equ	0xFF7
  7143                           tblptrl	equ	0xFF6
  7144                           tablat	equ	0xFF5
  7145                           prodh	equ	0xFF4
  7146                           prodl	equ	0xFF3
  7147                           intcon	equ	0xFF2
  7148                           postinc0	equ	0xFEE
  7149                           fsr0h	equ	0xFEA
  7150                           fsr0l	equ	0xFE9
  7151                           wreg	equ	0xFE8
  7152                           postdec1	equ	0xFE5
  7153                           fsr1h	equ	0xFE2
  7154                           fsr1l	equ	0xFE1
  7155                           postinc2	equ	0xFDE
  7156                           postdec2	equ	0xFDD
  7157                           fsr2h	equ	0xFDA
  7158                           fsr2l	equ	0xFD9
  7159                           status	equ	0xFD8
  7160                           pclatu	equ	0xFFB
  7161                           pclath	equ	0xFFA
  7162                           tblptru	equ	0xFF8
  7163                           tblptrh	equ	0xFF7
  7164                           tblptrl	equ	0xFF6
  7165                           tablat	equ	0xFF5
  7166                           prodh	equ	0xFF4
  7167                           prodl	equ	0xFF3
  7168                           intcon	equ	0xFF2
  7169                           postinc0	equ	0xFEE
  7170                           fsr0h	equ	0xFEA
  7171                           fsr0l	equ	0xFE9
  7172                           wreg	equ	0xFE8
  7173                           postdec1	equ	0xFE5
  7174                           fsr1h	equ	0xFE2
  7175                           fsr1l	equ	0xFE1
  7176                           postinc2	equ	0xFDE
  7177                           postdec2	equ	0xFDD
  7178                           fsr2h	equ	0xFDA
  7179                           fsr2l	equ	0xFD9
  7180                           status	equ	0xFD8
  7181                           
  7182                           	psect	rparam
  7183  0000                     pclatu	equ	0xFFB
  7184                           pclath	equ	0xFFA
  7185                           tblptru	equ	0xFF8
  7186                           tblptrh	equ	0xFF7
  7187                           tblptrl	equ	0xFF6
  7188                           tablat	equ	0xFF5
  7189                           prodh	equ	0xFF4
  7190                           prodl	equ	0xFF3
  7191                           intcon	equ	0xFF2
  7192                           postinc0	equ	0xFEE
  7193                           fsr0h	equ	0xFEA
  7194                           fsr0l	equ	0xFE9
  7195                           wreg	equ	0xFE8
  7196                           postdec1	equ	0xFE5
  7197                           fsr1h	equ	0xFE2
  7198                           fsr1l	equ	0xFE1
  7199                           postinc2	equ	0xFDE
  7200                           postdec2	equ	0xFDD
  7201                           fsr2h	equ	0xFDA
  7202                           fsr2l	equ	0xFD9
  7203                           status	equ	0xFD8
  7204                           
  7205                           	psect	temp
  7206  00005E                     btemp:
  7207                           	opt stack 0
  7208  00005E                     	ds	1
  7209  0000                     int$flags	set	btemp
  7210  0000                     wtemp6	set	btemp+1
  7211                           pclatu	equ	0xFFB
  7212                           pclath	equ	0xFFA
  7213                           tblptru	equ	0xFF8
  7214                           tblptrh	equ	0xFF7
  7215                           tblptrl	equ	0xFF6
  7216                           tablat	equ	0xFF5
  7217                           prodh	equ	0xFF4
  7218                           prodl	equ	0xFF3
  7219                           intcon	equ	0xFF2
  7220                           postinc0	equ	0xFEE
  7221                           fsr0h	equ	0xFEA
  7222                           fsr0l	equ	0xFE9
  7223                           wreg	equ	0xFE8
  7224                           postdec1	equ	0xFE5
  7225                           fsr1h	equ	0xFE2
  7226                           fsr1l	equ	0xFE1
  7227                           postinc2	equ	0xFDE
  7228                           postdec2	equ	0xFDD
  7229                           fsr2h	equ	0xFDA
  7230                           fsr2l	equ	0xFD9
  7231                           status	equ	0xFD8


Data Sizes:
    Strings     0
    Constant    8
    Data        26
    BSS         119
    Persistent  0
    Stack       0

Auto Spaces:
    Space          Size  Autos    Used
    COMRAM           94     86      93
    BANK0           160     72     158
    BANK1           256      0      52
    BANK2           256      0       0
    BANK3           256      0       0
    BANK4           256      0       0
    BANK5           256      0       0
    BANK6           256      0       0
    BANK7           256      0       0
    BANK8           256      0       0
    BANK9           256      0       0
    BANK10          256      0       0
    BANK11          256      0       0
    BANK12          256      0       0
    BANK13          256      0       0
    BANK14          256      0       0
    BANK15           56      0       0

Pointer List with Targets:

    None.

Critical Paths under _main in COMRAM

    None.

Critical Paths under _isr in COMRAM

    _isr->i2___fldiv
    i2___flmul->i2___xxtofl
    i2___fldiv->i2___flmul

Critical Paths under _main in BANK0

    _main->_Control_up
    ___fltol->___flmul
    ___fldiv->___flmul
    _Control_up->___fladd
    _Control_down->___fladd
    ___flneg->___flmul
    ___flmul->___xxtofl
    ___fladd->___flneg

Critical Paths under _isr in BANK0

    None.

Critical Paths under _main in BANK1

    None.

Critical Paths under _isr in BANK1

    None.

Critical Paths under _main in BANK2

    None.

Critical Paths under _isr in BANK2

    None.

Critical Paths under _main in BANK3

    None.

Critical Paths under _isr in BANK3

    None.

Critical Paths under _main in BANK4

    None.

Critical Paths under _isr in BANK4

    None.

Critical Paths under _main in BANK5

    None.

Critical Paths under _isr in BANK5

    None.

Critical Paths under _main in BANK6

    None.

Critical Paths under _isr in BANK6

    None.

Critical Paths under _main in BANK7

    None.

Critical Paths under _isr in BANK7

    None.

Critical Paths under _main in BANK8

    None.

Critical Paths under _isr in BANK8

    None.

Critical Paths under _main in BANK9

    None.

Critical Paths under _isr in BANK9

    None.

Critical Paths under _main in BANK10

    None.

Critical Paths under _isr in BANK10

    None.

Critical Paths under _main in BANK11

    None.

Critical Paths under _isr in BANK11

    None.

Critical Paths under _main in BANK12

    None.

Critical Paths under _isr in BANK12

    None.

Critical Paths under _main in BANK13

    None.

Critical Paths under _isr in BANK13

    None.

Critical Paths under _main in BANK14

    None.

Critical Paths under _isr in BANK14

    None.

Critical Paths under _main in BANK15

    None.

Critical Paths under _isr in BANK15

    None.

Call Graph Tables:

 ---------------------------------------------------------------------------------
 (Depth) Function   	        Calls       Base Space   Used Autos Params    Refs
 ---------------------------------------------------------------------------------
 (0) _main                                                 4     4      0   29811
                                             68 BANK0      4     4      0
                       _Configure_HW
                       _Control_down
                         _Control_up
                      _Set_PWM2_Duty
                      _Set_PWM3_Duty
                            ___fldiv
                             ___flge
                            ___flmul
                            ___fltol
                            ___lwdiv
                           ___xxtofl
 ---------------------------------------------------------------------------------
 (1) ___xxtofl                                            14    10      4     600
                                              0 BANK0     14    10      4
 ---------------------------------------------------------------------------------
 (1) ___lwdiv                                              7     3      4     314
                                              0 BANK0      7     3      4
 ---------------------------------------------------------------------------------
 (1) ___fltol                                             10     6      4     457
                                             39 BANK0     10     6      4
                            ___flmul (ARG)
 ---------------------------------------------------------------------------------
 (1) ___fldiv                                             25    17      8    1473
                                             39 BANK0     25    17      8
                            ___flmul (ARG)
                           ___xxtofl (ARG)
 ---------------------------------------------------------------------------------
 (1) _Set_PWM3_Duty                                        4     2      2     272
                                              0 BANK0      4     2      2
 ---------------------------------------------------------------------------------
 (1) _Set_PWM2_Duty                                        4     2      2     272
                                              0 BANK0      4     2      2
 ---------------------------------------------------------------------------------
 (1) _Control_up                                           5     5      0   10209
                                             63 BANK0      5     5      0
                            ___fladd
                             ___flge
                            ___flmul
                            ___flneg
 ---------------------------------------------------------------------------------
 (1) _Control_down                                         4     4      0   10209
                                             63 BANK0      4     4      0
                            ___fladd
                             ___flge
                            ___flmul
                            ___flneg
 ---------------------------------------------------------------------------------
 (2) ___flneg                                              4     0      4     273
                                             39 BANK0      4     0      4
                            ___flmul (ARG)
 ---------------------------------------------------------------------------------
 (1) ___flmul                                             25    17      8    3847
                                             14 BANK0     25    17      8
                           ___xxtofl (ARG)
 ---------------------------------------------------------------------------------
 (1) ___flge                                              12     4      8    2158
                                              0 BANK0     12     4      8
 ---------------------------------------------------------------------------------
 (2) ___fladd                                             20    12      8    3908
                                             43 BANK0     20    12      8
                            ___flmul (ARG)
                            ___flneg (ARG)
 ---------------------------------------------------------------------------------
 (1) _Configure_HW                                         1     1      0       0
                                              0 BANK0      1     1      0
                      _Config_Timer0
                      _Config_Timer2
                     _Configure_PWM2
                     _Configure_PWM3
                         _SPI_SLAVE1
 ---------------------------------------------------------------------------------
 (2) _SPI_SLAVE1                                           0     0      0       0
 ---------------------------------------------------------------------------------
 (2) _Configure_PWM3                                       0     0      0       0
 ---------------------------------------------------------------------------------
 (2) _Configure_PWM2                                       0     0      0       0
 ---------------------------------------------------------------------------------
 (2) _Config_Timer2                                        0     0      0       0
 ---------------------------------------------------------------------------------
 (2) _Config_Timer0                                        0     0      0       0
 ---------------------------------------------------------------------------------
 Estimated maximum stack depth 2
 ---------------------------------------------------------------------------------
 (Depth) Function   	        Calls       Base Space   Used Autos Params    Refs
 ---------------------------------------------------------------------------------
 (3) _isr                                                 22    22      0    3066
                                             64 COMRAM    22    22      0
                         _Set_Timer0
                          i2___fldiv
                          i2___flmul
                         i2___xxtofl
 ---------------------------------------------------------------------------------
 (4) i2___xxtofl                                          14    10      4     348
                                              0 COMRAM    14    10      4
 ---------------------------------------------------------------------------------
 (4) i2___flmul                                           25    17      8    1491
                                             14 COMRAM    25    17      8
                         i2___xxtofl (ARG)
 ---------------------------------------------------------------------------------
 (4) i2___fldiv                                           25    17      8    1107
                                             39 COMRAM    25    17      8
                          i2___flmul (ARG)
                         i2___xxtofl (ARG)
 ---------------------------------------------------------------------------------
 (4) _Set_Timer0                                           2     0      2     120
                                              0 COMRAM     2     0      2
 ---------------------------------------------------------------------------------
 Estimated maximum stack depth 4
 ---------------------------------------------------------------------------------

 Call Graph Graphs:

 _main (ROOT)
   _Configure_HW
     _Config_Timer0
     _Config_Timer2
     _Configure_PWM2
     _Configure_PWM3
     _SPI_SLAVE1
   _Control_down
     ___fladd
       ___flmul (ARG)
         ___xxtofl (ARG)
       ___flneg (ARG)
         ___flmul (ARG)
           ___xxtofl (ARG)
     ___flge
     ___flmul
       ___xxtofl (ARG)
     ___flneg
       ___flmul (ARG)
         ___xxtofl (ARG)
   _Control_up
     ___fladd
       ___flmul (ARG)
         ___xxtofl (ARG)
       ___flneg (ARG)
         ___flmul (ARG)
           ___xxtofl (ARG)
     ___flge
     ___flmul
       ___xxtofl (ARG)
     ___flneg
       ___flmul (ARG)
         ___xxtofl (ARG)
   _Set_PWM2_Duty
   _Set_PWM3_Duty
   ___fldiv
     ___flmul (ARG)
       ___xxtofl (ARG)
     ___xxtofl (ARG)
   ___flge
   ___flmul
     ___xxtofl (ARG)
   ___fltol
     ___flmul (ARG)
       ___xxtofl (ARG)
   ___lwdiv
   ___xxtofl

 _isr (ROOT)
   _Set_Timer0
   i2___fldiv
     i2___flmul (ARG)
       i2___xxtofl (ARG)
     i2___xxtofl (ARG)
   i2___flmul
     i2___xxtofl (ARG)
   i2___xxtofl

 Address spaces:
Name               Size   Autos  Total    Cost      Usage
BIGRAM             F37      0       0      37        0.0%
EEDATA             400      0       0       0        0.0%
BITBANK14          100      0       0      33        0.0%
BANK14             100      0       0      34        0.0%
BITBANK13          100      0       0      31        0.0%
BANK13             100      0       0      32        0.0%
BITBANK12          100      0       0      29        0.0%
BANK12             100      0       0      30        0.0%
BITBANK11          100      0       0      27        0.0%
BANK11             100      0       0      28        0.0%
BITBANK10          100      0       0      25        0.0%
BANK10             100      0       0      26        0.0%
BITBANK9           100      0       0      23        0.0%
BANK9              100      0       0      24        0.0%
BITBANK8           100      0       0      21        0.0%
BANK8              100      0       0      22        0.0%
BITBANK7           100      0       0      19        0.0%
BANK7              100      0       0      20        0.0%
BITBANK6           100      0       0      17        0.0%
BANK6              100      0       0      18        0.0%
BITBANK5           100      0       0      15        0.0%
BANK5              100      0       0      16        0.0%
BITBANK4           100      0       0      13        0.0%
BANK4              100      0       0      14        0.0%
BITBANK3           100      0       0      10        0.0%
BANK3              100      0       0      11        0.0%
BITBANK2           100      0       0       8        0.0%
BANK2              100      0       0       9        0.0%
BITBANK1           100      0       0       6        0.0%
BANK1              100      0      34       7       20.3%
BITBANK0            A0      0       0       4        0.0%
BANK0               A0     48      9E       5       98.8%
BITCOMRAM           5E      0       0       0        0.0%
COMRAM              5E     56      5D       1       98.9%
BITBANK15           38      0       0      35        0.0%
BANK15              38      0       0      36        0.0%
BITSFR_1             0      0       0     200        0.0%
SFR_1                0      0       0     200        0.0%
BITSFR               0      0       0     200        0.0%
SFR                  0      0       0     200        0.0%
STACK                0      0       0       2        0.0%
NULL                 0      0       0       0        0.0%
ABS                  0      0     12F      12        0.0%
DATA                 0      0     12F       3        0.0%
CODE                 0      0       0       0        0.0%


Microchip Technology PIC18 Macro Assembler V1.45 build -152302408 
Symbol Table                                                                                   Tue May 22 16:31:30 2018

          ?_Control_down 0001             ___fldiv@aexp 009F             ___fldiv@bexp 009E  
                      _i 00E4             ___fldiv@sign 0093                       _Kp 00F4  
           __CFG_CP0$OFF 000000             __CFG_CP1$OFF 000000                      l212 1062  
                    l214 1120                      l215 1134                      l208 104E  
                    l217 12CA                      l209 105C                      l193 274C  
                    _AN1 007C01                      l198 2538                      l761 2DBA  
                    l754 2A3C                      l755 2A70                      l756 2AAE  
                    l757 2AEC                      l792 2BD8                      l784 2B48  
                    l793 2BCC                      l786 2BB4                      l962 2D1A  
                    l795 2BF4                      l787 2BA4                      l963 2D24  
                    l958 2CFA                      l991 1B4C                      l983 1AA8  
                    l959 2CF2                      l992 1B10                      l984 1AA4  
                    l995 1BC8                      l996 1BA6                      l988 1AF0  
                    l997 1BB4                      l989 1AEC                      l998 1BB8  
           __CFG_CPB$OFF 000000                      _PR2 000FBB             __CFG_CPD$OFF 000000  
                    _Kp2 00F8                      _inv 005B              i2___fldiv@a 002C  
                    _u_i 00BC              i2___fldiv@b 0028                      _isr 0008  
                    _u_p 011C                      _pwm 00D4        _Control_down$2670 009F  
             i2___xxtofl 28B6                      prod 000FF3                      wreg 000FE8  
            i2___flmul@a 0013              i2___flmul@b 000F             ___flmul@aexp 007F  
           ___flmul@bexp 0080             ___flmul@sign 007A             ___flmul@temp 0085  
           ___flmul@prod 0081             __CFG_LVP$OFF 000000             ___fltol@exp1 0090  
                   l1001 1C26                     l1002 1BEC                     l1011 1CBE  
                   l1005 1C10                     l1030 1D8E                     l1014 1CE2  
                   l1006 1C14                     l1110 280A                     l1102 27A4  
                   l1031 1D96                     l1023 1D22                     l1103 27B4  
                   l1032 1D98                     l1016 1CF8                     l1040 1DE6  
                   l1112 2854                     l1104 27D2                     l1009 1CAE  
                   l1041 1DE2                     l1113 2848                     l1026 1D68  
                   l1018 1D02                     l1050 1F42                     l1106 27E4  
                   l1051 1EF2                     l1107 27D8                     l1052 1F1A  
                   l1044 1E26                     l1045 1E22                     l1117 2872  
                   l1109 2822                     l1070 204E                     l1054 1F40  
                   l1118 28A4                     l1047 1E6C                     l1080 1456  
                   l1064 1FAE                     l1081 1474                     l1057 1F76  
                   l1049 1E94                     l1074 1406                     l1066 1FF2  
                   l1058 1F58                     l1075 1402                     l1067 2016  
                   l1092 166C                     l1076 1416                     l1068 2040  
                   l1085 1634                     l1069 204C                     l1094 16B0  
                   l1086 1616                     l1078 1446                     l1095 16CE  
                   l1079 1442                     l1097 16F2                     l1098 1710  
                   l3182 2040                     l2594 2B24                     l3748 1054  
                   l3776 1120                     ?_isr 0001                     u2130 1B7C  
                   u2140 1B8C                     u3020 2BDE                     u2310 1D06  
                   u2150 1B8E                     u3050 2CFE                     u3130 285E  
                   u2340 1D1E                     u2180 1BD0                     u2500 1462  
                   u2510 15D8                     u2600 16DC                     u2515 15CE  
                   u2390 1D74                     u2560 1668                     u2590 16BE  
                   u2910 1FAA                     u2680 25EE                     u2940 2000  
                   u2950 2024                     u3910 1218                     u2698 25F2  
                   u3930 126C                     u2980 2B66                     u3860 1096  
                   u3950 1320                     u2985 2B5C                     u3970 1374  
                   u3987 2CAE                     _TMR2 000FBC                     _TMR4 000F53  
                   _TMR6 000F4C                     _Out1 00AC                     _Out2 00A8  
                   _u_i2 00B4                     _main 100A                     _u_p2 0114  
                   fsr0h 000FEA                     fsr1h 000FE2                     fsr2h 000FDA  
                   fsr0l 000FE9                     fsr1l 000FE1                     fsr2l 000FD9  
                   btemp 005E                     prodh 000FF4                     prodl 000FF3  
                   start 01F2            __CFG_IESO$OFF 000000          ___fldiv@new_exp 0098  
         ??_Control_down 009F             ___param_bank 000000                    ??_isr 0041  
          ___fltol@sign1 008F          __end_of___fladd 1DB4                    ?_main 0001  
          _vetor_leitura 0100          __end_of___fldiv 206A          __end_of___flneg 2DCC  
        __end_of___flmul 1726          __end_of___fltol 2C06          __end_of___lwdiv 2D2E  
                  i2l170 01A6                    i2l171 00FE                    i2l172 01A4  
                  i2l167 0080                    i2l168 007A                    i2l169 007C  
                  _TMR0H 000FD7                    _TMR1H 000FCF                    _TMR0L 000FD6  
                  _TMR1L 000FCE                    _TMR3H 000FB3                    _TMR3L 000FB2  
                  _TMR5H 000F50                    _TMR5L 000F4F                    _TRISA 000F92  
                  _TRISB 000F93                    _TRISC 000F94                    _TRISD 000F95  
                  _TRISE 000F96                    _Angle 00EC            __CFG_WRT0$OFF 000000  
          __CFG_WRT1$OFF 000000                    _Erro1 00B0                    _Erro2 00E6  
                  _Ki_vb 1001                    _Kp_vb 1005           __CFG_EBTR0$OFF 000000  
         __CFG_FCMEN$OFF 000000           __CFG_EBTR1$OFF 000000            __CFG_WRTB$OFF 000000  
          __CFG_WRTC$OFF 000000            __CFG_WRTD$OFF 000000           __CFG_EBTRB$OFF 000000  
                  _media 00E0            i2___fldiv@grs 003B            i2___fldiv@rem 0035  
                  _value 00EA                    _valor 00D0                    pclath 000FFA  
                  tablat 000FF5               _Control_up 254E                    status 000FD8  
            ?_SPI_SLAVE1 0001                    wtemp6 005F            i2___flmul@grs 001C  
         __CFG_FOSC$HSHP 000000       __size_ofi2___fldiv 02B4       __size_ofi2___flmul 0350  
        __initialization 2C06             __end_of_main 13D4                   ??_main 00A4  
   __end_of_Configure_HW 2CDA            __activetblptr 000001           __CFG_PLLCFG$ON 000000  
            ?i2___xxtofl 0001                   _ADCON0 000FC2                   _ADCON1 000FC1  
                 _ADCON2 000FC0                   _ADRESH 000FC4                   _ADRESL 000FC3  
                 _CCPR1H 000FBF                   _CCPR2H 000F68                   _CCPR1L 000FBE  
                 _CCPR3H 000F5F                   _CCPR2L 000F67                   _CCPR3L 000F5E  
                 _CCPR5H 000F56                   _CCPR4L 000F58                   _CCPR5L 000F55  
                 _ANSELA 000F38                   _ANSELB 000F39                   _ANSELC 000F3A  
                 _ANSELD 000F3B                   _ANSELE 000F3C                   i2l1110 295A  
                 i2l1102 28F4                   i2l1103 2904                   i2l1040 209A  
                 i2l1112 29A4                   i2l1104 2922                   i2l1041 2096  
                 i2l1113 2998                   i2l1050 21F6                   i2l1106 2934  
                 i2l1051 21A6                   i2l1107 2928                   i2l1052 21CE  
                 i2l1044 20DA                   i2l1045 20D6                   i2l1117 29C2  
                 i2l1109 2972                   i2l1070 2302                   i2l1054 21F4  
                 i2l1118 29F4                   i2l1047 2120                   i2l1064 2262  
                 i2l1080 17A6                   i2l1057 222A                   i2l1049 2148  
                 i2l1081 17C4                   i2l1066 22A6                   i2l1058 220C  
                 i2l1074 1756                   i2l1067 22CA                   i2l1075 1752  
                 i2l1068 22F4                   i2l1092 19BC                   i2l1076 1766  
                 i2l1069 2300                   i2l1085 1984                   i2l1094 1A00  
                 i2l1086 1966                   i2l1078 1796                   i2l1095 1A1E  
                 i2l1079 1792                   i2l1097 1A42                   i2l1098 1A60  
                 i2l3426 22F4                   i2l3648 00FE               _Set_Timer0 2E52  
                 _TMR1IE 007CE8                   _TMR3IE 007D01                   _TMR5IE 007BE9  
                 _SSP1IP 007CFB                   _SSP2IP 007D2F                   _TRISB0 007C98  
                 _TRISB1 007C99                   _TRISB2 007C9A                   _TRISA5 007C95  
                 _TRISD0 007CA8                   _TRISC3 007CA3                   _TRISD1 007CA9  
                 _TRISC4 007CA4                   _TRISC5 007CA5                   _TRISD3 007CAB  
                 _TRISD4 007CAC         __end_of___xxtofl 28B6                   _Dif_vb 00D2  
                 _e1_ant 00C4                   _e2_ant 00C0           __CFG_XINST$OFF 000000  
           _CCPTMRS0bits 000F49             _CCPTMRS1bits 000F48                   _u1_ant 0128  
                 _u2_ant 0124                   ___flge 2A06               _ValorTotal 005C  
              ??___fladd 0093                ??___fldiv 008F                ??___flneg 008B  
         __CFG_STVREN$ON 000000                ??___flmul 0076                ??___fltol 008B  
              ??___lwdiv 0064                   _ref_vb 00E2                   clear_0 2C4C  
                 clear_1 2C58                   clear_2 2C64           i2___fldiv@aexp 0040  
         i2___fldiv@bexp 003F                   _ui_ant 00B8           i2___fldiv@sign 0034  
                 _up_ant 0120                   _tps_ad 00DA      __size_of_SPI_SLAVE1 0012  
      __end_ofi2___fldiv 231E        __end_ofi2___flmul 1A76             __mediumconst 0000  
                 tblptrh 000FF7                   tblptrl 000FF6                   tblptru 000FF8  
   __end_of_Control_down 254E           i2___flmul@aexp 0020           i2___flmul@bexp 0021  
         i2___flmul@sign 001B           i2___flmul@temp 0026           i2___flmul@prod 0022  
             ___flge@ff1 0060               ___flge@ff2 0064             ___xxtofl@arg 006A  
           ___xxtofl@exp 0069             ___xxtofl@val 0060               __accesstop 0060  
            ?_Control_up 0001  __end_of__initialization 2C6A               ___flneg@f1 0087  
 __size_of_Set_PWM2_Duty 0032   __size_of_Set_PWM3_Duty 003C            ___rparam_used 000001  
             ___fltol@f1 0087      __size_ofi2___xxtofl 0150            __end_of_Ki_vb 1005  
          __end_of_Kp_vb 1009           __pcstackCOMRAM 0001             __pidataBANK0 2E0C  
           __pidataBANK1 2E5C    __end_of_Config_Timer0 2E42    __end_of_Config_Timer2 2E52  
             __pbssBANK0 00A8               __pbssBANK1 0100              ?_Set_Timer0 0001  
 Set_PWM2_Duty@dutyValue 0060       __CFG_CCP2MX$PORTB3 000000                  ?___flge 0060  
  __size_of_Configure_HW 005E                  _CCP1CON 000FBD                  _CCP2CON 000F66  
                _CCP3CON 000F5D                  _CCP4CON 000F57                  _CCP5CON 000F54  
          _Set_PWM2_Duty 2D6A            _Set_PWM3_Duty 2D2E      __size_of_Control_up 0214  
              ?___xxtofl 0060  __size_of_Configure_PWM2 0020  __size_of_Configure_PWM3 0020  
                _SSP1BUF 000FC9                  _SSP2BUF 000F6F     _constante_integrador 0130  
           ??_SPI_SLAVE1 0060             _Configure_HW 2C7C                  __Hparam 0000  
                __Lparam 0000          __size_of___flge 0122                  ___fladd 1A76  
                ___fldiv 1DB4                  ___flneg 2D9C                  ___flmul 13D4  
                ___fltol 2B28                  ___lwdiv 2CDA             __psmallconst 1000  
         ?_Set_PWM2_Duty 0060                  __pcinit 2C06           ?_Set_PWM3_Duty 0060  
                __ramtop 1000                  _flag_vb 00FC                  __ptext0 100A  
                __ptext1 2762                  __ptext2 2CDA                  __ptext3 2B28  
                __ptext4 1DB4                  __ptext5 2D2E                  __ptext6 2D6A  
                __ptext7 254E                  __ptext8 231E                  __ptext9 2D9C  
    __size_of_Set_Timer0 000A    __size_of_Control_down 0230                _T0CONbits 000FD5  
              _T1CONbits 000FCD                  _counter 0059                _T2CONbits 000FBA  
                _erro_vb 00C8             __size_of_isr 01EA             ??i2___xxtofl 0005  
             ??___xxtofl 0064                _T3CONbits 000FB1       __end_of_SPI_SLAVE1 2E30  
              _T4CONbits 000F51                  _ui_ant2 0118                _T5CONbits 000F4E  
              _T6CONbits 000F4A                  _spi_ctr 0057                  _tps_ad2 00D8  
   end_of_initialization 2C6A               _pwm_10bits 00DC           i2___xxtofl@arg 000B  
         i2___xxtofl@exp 000A           i2___xxtofl@val 0001       __end_ofi2___xxtofl 2A06  
           _Control_down 231E                  postdec1 000FE5                  postdec2 000FDD  
                postinc0 000FEE                  postinc2 000FDE                _PORTBbits 000F81  
            ___fladd@grs 009E            ___xxtofl@sign 0068              ___fldiv@grs 009A  
            ___fldiv@rem 0094                i2___fldiv 206A                i2___flmul 1726  
           ??_Control_up 009F              ___flmul@grs 007B              _ECCP1ASbits 000FB6  
            _ECCP2ASbits 000F64          ??_Set_PWM2_Duty 0062          ??_Set_PWM3_Duty 0062  
            _ECCP3ASbits 000F5B           __end_of___flge 2B28       __end_of_Control_up 2762  
         _Configure_PWM2 2DEC           _Configure_PWM3 2DCC      start_initialization 2C06  
            __end_of_isr 01F2               ?i2___fldiv 0028               ?i2___flmul 000F  
           ??_Set_Timer0 0003            _EnableControl 00E5                 ??___flge 0068  
            __pdataBANK0 00EC              __pdataBANK1 012C   __end_of_Configure_PWM2 2E0C  
 __end_of_Configure_PWM3 2DEC                ___fladd@a 008F                ___fladd@b 008B  
     __end_of_Set_Timer0 2E5C                ___fldiv@a 008B                ___fldiv@b 0087  
              ___flmul@a 0072                ___flmul@b 006E              __pbssCOMRAM 0057  
          __pcstackBANK0 0060        __size_of___xxtofl 0154   __size_of_Config_Timer0 0012  
 __size_of_Config_Timer2 0010         ___lwdiv@dividend 0060                __pintcode 0008  
               ?___fladd 008B                 ?___fldiv 0087                 ?___flneg 0087  
               ?___flmul 006E                 ?___fltol 0087                 ?___lwdiv 0060  
        ?_Configure_PWM2 0001          ?_Configure_PWM3 0001              __smallconst 1000  
       ___lwdiv@quotient 0064              ??i2___fldiv 0030              ??i2___flmul 0017  
              _ref_vbReq 005A                 _LATAbits 000F89                 _LATBbits 000F8A  
               _LATCbits 000F8B                 _LATDbits 000F8C                 _PIE1bits 000F9D  
               i2u334_40 225E                 i2u337_40 22B4                 i2u353_40 19B8  
               _PIR1bits 000F9E                 i2u338_40 22D8                 i2u347_40 17B2  
               i2u356_40 1A0E                 i2u348_40 1928                 i2u348_45 191E  
               i2u357_40 1A2C                 i2u365_40 29AE                 i2u374_40 00DE  
               i2u376_40 00F8                 i2u375_48 00E0        i2___fldiv@new_exp 0039  
       __CFG_WDTPS$32768 000000                 _SSP1CON1 000FC6                 _SSP2CON1 000F6C  
               _SSP1STAT 000FC7                 _SSP2STAT 000F6D            _Config_Timer0 2E30  
          _Config_Timer2 2E42          _Control_up$2669 00A0               _ADCON0bits 000FC2  
             _ADCON1bits 000FC1               _ADCON2bits 000FC0    _constante_integrador2 012C  
            _INTCON2bits 000FF1                copy_data0 2C1A                copy_data1 2C3A  
               _SetPoint 00F0                 __Hrparam 0000                 __Lrparam 0000  
           __Lsmallconst 1000     Set_Timer0@data_timer 0001           ?_Config_Timer0 0001  
         ?_Config_Timer2 0001         __size_of___fladd 033E         __size_of___fldiv 02B6  
       __size_of___flneg 0030         __size_of___flmul 0352         __size_of___fltol 00DE  
       __size_of___lwdiv 0054                 ___xxtofl 2762          ___lwdiv@divisor 0062  
        ___lwdiv@counter 0066                 __ptext10 13D4                 __ptext11 2A06  
               __ptext20 28B6                 __ptext12 1A76                 __ptext21 1726  
               __ptext13 2C7C                 __ptext22 206A                 __ptext14 2E1E  
               __ptext23 2E52                 __ptext15 2DCC                 __ptext16 2DEC  
               __ptext17 2E42                 __ptext18 2E30                 _counter2 00D6  
               _pedal_ad 00DE            __size_of_main 03CA   Set_PWM3_Duty@dutyValue 0060  
               int$flags 005E             _SSP1STATbits 000FC7    __end_of_Set_PWM2_Duty 2D9C  
  __end_of_Set_PWM3_Duty 2D6A             _SSP2STATbits 000F6D               _INTCONbits 000FF2  
               intlevel2 0000          i2___xxtofl@sign 0009            ?_Configure_HW 0001  
        ??_Config_Timer0 0060          ??_Config_Timer2 0060         ??_Configure_PWM2 0060  
       ??_Configure_PWM3 0060             _soma_erro_vb 00CC            ___fladd@signs 009B  
           ___fladd@aexp 009C             ___fladd@bexp 009D           ??_Configure_HW 0060  
             _SPI_SLAVE1 2E1E  
